
spy:     file format elf64-x86-64


Disassembly of section .init:

00000000004008c0 <_init>:
  4008c0:	48 83 ec 08          	sub    $0x8,%rsp
  4008c4:	48 8b 05 2d b7 20 00 	mov    0x20b72d(%rip),%rax        # 60bff8 <_DYNAMIC+0x1f0>
  4008cb:	48 85 c0             	test   %rax,%rax
  4008ce:	74 05                	je     4008d5 <_init+0x15>
  4008d0:	e8 7b 00 00 00       	callq  400950 <__gmon_start__@plt>
  4008d5:	48 83 c4 08          	add    $0x8,%rsp
  4008d9:	c3                   	retq   

Disassembly of section .plt:

00000000004008e0 <pthread_create@plt-0x10>:
  4008e0:	ff 35 22 b7 20 00    	pushq  0x20b722(%rip)        # 60c008 <_GLOBAL_OFFSET_TABLE_+0x8>
  4008e6:	ff 25 24 b7 20 00    	jmpq   *0x20b724(%rip)        # 60c010 <_GLOBAL_OFFSET_TABLE_+0x10>
  4008ec:	0f 1f 40 00          	nopl   0x0(%rax)

00000000004008f0 <pthread_create@plt>:
  4008f0:	ff 25 22 b7 20 00    	jmpq   *0x20b722(%rip)        # 60c018 <_GLOBAL_OFFSET_TABLE_+0x18>
  4008f6:	68 00 00 00 00       	pushq  $0x0
  4008fb:	e9 e0 ff ff ff       	jmpq   4008e0 <_init+0x20>

0000000000400900 <gcry_mpi_powm@plt>:
  400900:	ff 25 1a b7 20 00    	jmpq   *0x20b71a(%rip)        # 60c020 <_GLOBAL_OFFSET_TABLE_+0x20>
  400906:	68 01 00 00 00       	pushq  $0x1
  40090b:	e9 d0 ff ff ff       	jmpq   4008e0 <_init+0x20>

0000000000400910 <fclose@plt>:
  400910:	ff 25 12 b7 20 00    	jmpq   *0x20b712(%rip)        # 60c028 <_GLOBAL_OFFSET_TABLE_+0x28>
  400916:	68 02 00 00 00       	pushq  $0x2
  40091b:	e9 c0 ff ff ff       	jmpq   4008e0 <_init+0x20>

0000000000400920 <__stack_chk_fail@plt>:
  400920:	ff 25 0a b7 20 00    	jmpq   *0x20b70a(%rip)        # 60c030 <_GLOBAL_OFFSET_TABLE_+0x30>
  400926:	68 03 00 00 00       	pushq  $0x3
  40092b:	e9 b0 ff ff ff       	jmpq   4008e0 <_init+0x20>

0000000000400930 <__libc_start_main@plt>:
  400930:	ff 25 02 b7 20 00    	jmpq   *0x20b702(%rip)        # 60c038 <_GLOBAL_OFFSET_TABLE_+0x38>
  400936:	68 04 00 00 00       	pushq  $0x4
  40093b:	e9 a0 ff ff ff       	jmpq   4008e0 <_init+0x20>

0000000000400940 <gcry_mpi_new@plt>:
  400940:	ff 25 fa b6 20 00    	jmpq   *0x20b6fa(%rip)        # 60c040 <_GLOBAL_OFFSET_TABLE_+0x40>
  400946:	68 05 00 00 00       	pushq  $0x5
  40094b:	e9 90 ff ff ff       	jmpq   4008e0 <_init+0x20>

0000000000400950 <__gmon_start__@plt>:
  400950:	ff 25 f2 b6 20 00    	jmpq   *0x20b6f2(%rip)        # 60c048 <_GLOBAL_OFFSET_TABLE_+0x48>
  400956:	68 06 00 00 00       	pushq  $0x6
  40095b:	e9 80 ff ff ff       	jmpq   4008e0 <_init+0x20>

0000000000400960 <gcry_mpi_set_ui@plt>:
  400960:	ff 25 ea b6 20 00    	jmpq   *0x20b6ea(%rip)        # 60c050 <_GLOBAL_OFFSET_TABLE_+0x50>
  400966:	68 07 00 00 00       	pushq  $0x7
  40096b:	e9 70 ff ff ff       	jmpq   4008e0 <_init+0x20>

0000000000400970 <__stpcpy_chk@plt>:
  400970:	ff 25 e2 b6 20 00    	jmpq   *0x20b6e2(%rip)        # 60c058 <_GLOBAL_OFFSET_TABLE_+0x58>
  400976:	68 08 00 00 00       	pushq  $0x8
  40097b:	e9 60 ff ff ff       	jmpq   4008e0 <_init+0x20>

0000000000400980 <malloc@plt>:
  400980:	ff 25 da b6 20 00    	jmpq   *0x20b6da(%rip)        # 60c060 <_GLOBAL_OFFSET_TABLE_+0x60>
  400986:	68 09 00 00 00       	pushq  $0x9
  40098b:	e9 50 ff ff ff       	jmpq   4008e0 <_init+0x20>

0000000000400990 <__printf_chk@plt>:
  400990:	ff 25 d2 b6 20 00    	jmpq   *0x20b6d2(%rip)        # 60c068 <_GLOBAL_OFFSET_TABLE_+0x68>
  400996:	68 0a 00 00 00       	pushq  $0xa
  40099b:	e9 40 ff ff ff       	jmpq   4008e0 <_init+0x20>

00000000004009a0 <fopen@plt>:
  4009a0:	ff 25 ca b6 20 00    	jmpq   *0x20b6ca(%rip)        # 60c070 <_GLOBAL_OFFSET_TABLE_+0x70>
  4009a6:	68 0b 00 00 00       	pushq  $0xb
  4009ab:	e9 30 ff ff ff       	jmpq   4008e0 <_init+0x20>

00000000004009b0 <pthread_join@plt>:
  4009b0:	ff 25 c2 b6 20 00    	jmpq   *0x20b6c2(%rip)        # 60c078 <_GLOBAL_OFFSET_TABLE_+0x78>
  4009b6:	68 0c 00 00 00       	pushq  $0xc
  4009bb:	e9 20 ff ff ff       	jmpq   4008e0 <_init+0x20>

00000000004009c0 <exit@plt>:
  4009c0:	ff 25 ba b6 20 00    	jmpq   *0x20b6ba(%rip)        # 60c080 <_GLOBAL_OFFSET_TABLE_+0x80>
  4009c6:	68 0d 00 00 00       	pushq  $0xd
  4009cb:	e9 10 ff ff ff       	jmpq   4008e0 <_init+0x20>

00000000004009d0 <fwrite@plt>:
  4009d0:	ff 25 b2 b6 20 00    	jmpq   *0x20b6b2(%rip)        # 60c088 <_GLOBAL_OFFSET_TABLE_+0x88>
  4009d6:	68 0e 00 00 00       	pushq  $0xe
  4009db:	e9 00 ff ff ff       	jmpq   4008e0 <_init+0x20>

Disassembly of section .text:

0000000000401000 <main>:
  401000:	55                   	push   %rbp
  401001:	bf 18 00 00 00       	mov    $0x18,%edi
  401006:	53                   	push   %rbx
  401007:	48 83 ec 18          	sub    $0x18,%rsp
  40100b:	e8 70 f9 ff ff       	callq  400980 <malloc@plt>
  401010:	bf 00 40 00 00       	mov    $0x4000,%edi
  401015:	48 89 c3             	mov    %rax,%rbx
  401018:	e8 63 f9 ff ff       	callq  400980 <malloc@plt>
  40101d:	31 f6                	xor    %esi,%esi
  40101f:	48 89 d9             	mov    %rbx,%rcx
  401022:	ba e0 11 40 00       	mov    $0x4011e0,%edx
  401027:	48 89 e7             	mov    %rsp,%rdi
  40102a:	48 89 c5             	mov    %rax,%rbp
  40102d:	48 c7 03 0b 00 00 00 	movq   $0xb,(%rbx)
  401034:	48 c7 43 08 40 00 00 	movq   $0x40,0x8(%rbx)
  40103b:	00 
  40103c:	48 c7 43 10 1d 00 00 	movq   $0x1d,0x10(%rbx)
  401043:	00 
  401044:	e8 a7 f8 ff ff       	callq  4008f0 <pthread_create@plt>
  401049:	85 c0                	test   %eax,%eax
  40104b:	75 45                	jne    401092 <main+0x92>
  40104d:	48 8d 7c 24 08       	lea    0x8(%rsp),%rdi
  401052:	31 f6                	xor    %esi,%esi
  401054:	48 89 e9             	mov    %rbp,%rcx
  401057:	ba a0 11 40 00       	mov    $0x4011a0,%edx
  40105c:	e8 8f f8 ff ff       	callq  4008f0 <pthread_create@plt>
  401061:	85 c0                	test   %eax,%eax
  401063:	75 2d                	jne    401092 <main+0x92>
  401065:	48 8b 3c 24          	mov    (%rsp),%rdi
  401069:	31 f6                	xor    %esi,%esi
  40106b:	e8 40 f9 ff ff       	callq  4009b0 <pthread_join@plt>
  401070:	48 8b 7c 24 08       	mov    0x8(%rsp),%rdi
  401075:	31 f6                	xor    %esi,%esi
  401077:	e8 34 f9 ff ff       	callq  4009b0 <pthread_join@plt>
  40107c:	48 89 ee             	mov    %rbp,%rsi
  40107f:	bf 5a b0 40 00       	mov    $0x40b05a,%edi
  401084:	e8 37 02 00 00       	callq  4012c0 <save>
  401089:	48 83 c4 18          	add    $0x18,%rsp
  40108d:	31 c0                	xor    %eax,%eax
  40108f:	5b                   	pop    %rbx
  401090:	5d                   	pop    %rbp
  401091:	c3                   	retq   
  401092:	89 c2                	mov    %eax,%edx
  401094:	bf 01 00 00 00       	mov    $0x1,%edi
  401099:	be 68 b0 40 00       	mov    $0x40b068,%esi
  40109e:	31 c0                	xor    %eax,%eax
  4010a0:	e8 eb f8 ff ff       	callq  400990 <__printf_chk@plt>
  4010a5:	83 cf ff             	or     $0xffffffff,%edi
  4010a8:	e8 13 f9 ff ff       	callq  4009c0 <exit@plt>

00000000004010ad <_start>:
  4010ad:	31 ed                	xor    %ebp,%ebp
  4010af:	49 89 d1             	mov    %rdx,%r9
  4010b2:	5e                   	pop    %rsi
  4010b3:	48 89 e2             	mov    %rsp,%rdx
  4010b6:	48 83 e4 f0          	and    $0xfffffffffffffff0,%rsp
  4010ba:	50                   	push   %rax
  4010bb:	54                   	push   %rsp
  4010bc:	49 c7 c0 10 b0 40 00 	mov    $0x40b010,%r8
  4010c3:	48 c7 c1 a0 af 40 00 	mov    $0x40afa0,%rcx
  4010ca:	48 c7 c7 00 10 40 00 	mov    $0x401000,%rdi
  4010d1:	e8 5a f8 ff ff       	callq  400930 <__libc_start_main@plt>
  4010d6:	f4                   	hlt    
  4010d7:	66 0f 1f 84 00 00 00 	nopw   0x0(%rax,%rax,1)
  4010de:	00 00 

00000000004010e0 <deregister_tm_clones>:
  4010e0:	b8 a7 c0 60 00       	mov    $0x60c0a7,%eax
  4010e5:	55                   	push   %rbp
  4010e6:	48 2d a0 c0 60 00    	sub    $0x60c0a0,%rax
  4010ec:	48 83 f8 0e          	cmp    $0xe,%rax
  4010f0:	48 89 e5             	mov    %rsp,%rbp
  4010f3:	77 02                	ja     4010f7 <deregister_tm_clones+0x17>
  4010f5:	5d                   	pop    %rbp
  4010f6:	c3                   	retq   
  4010f7:	b8 00 00 00 00       	mov    $0x0,%eax
  4010fc:	48 85 c0             	test   %rax,%rax
  4010ff:	74 f4                	je     4010f5 <deregister_tm_clones+0x15>
  401101:	5d                   	pop    %rbp
  401102:	bf a0 c0 60 00       	mov    $0x60c0a0,%edi
  401107:	ff e0                	jmpq   *%rax
  401109:	0f 1f 80 00 00 00 00 	nopl   0x0(%rax)

0000000000401110 <register_tm_clones>:
  401110:	b8 a0 c0 60 00       	mov    $0x60c0a0,%eax
  401115:	55                   	push   %rbp
  401116:	48 2d a0 c0 60 00    	sub    $0x60c0a0,%rax
  40111c:	48 c1 f8 03          	sar    $0x3,%rax
  401120:	48 89 e5             	mov    %rsp,%rbp
  401123:	48 89 c2             	mov    %rax,%rdx
  401126:	48 c1 ea 3f          	shr    $0x3f,%rdx
  40112a:	48 01 d0             	add    %rdx,%rax
  40112d:	48 d1 f8             	sar    %rax
  401130:	75 02                	jne    401134 <register_tm_clones+0x24>
  401132:	5d                   	pop    %rbp
  401133:	c3                   	retq   
  401134:	ba 00 00 00 00       	mov    $0x0,%edx
  401139:	48 85 d2             	test   %rdx,%rdx
  40113c:	74 f4                	je     401132 <register_tm_clones+0x22>
  40113e:	5d                   	pop    %rbp
  40113f:	48 89 c6             	mov    %rax,%rsi
  401142:	bf a0 c0 60 00       	mov    $0x60c0a0,%edi
  401147:	ff e2                	jmpq   *%rdx
  401149:	0f 1f 80 00 00 00 00 	nopl   0x0(%rax)

0000000000401150 <__do_global_dtors_aux>:
  401150:	80 3d 49 af 20 00 00 	cmpb   $0x0,0x20af49(%rip)        # 60c0a0 <__TMC_END__>
  401157:	75 11                	jne    40116a <__do_global_dtors_aux+0x1a>
  401159:	55                   	push   %rbp
  40115a:	48 89 e5             	mov    %rsp,%rbp
  40115d:	e8 7e ff ff ff       	callq  4010e0 <deregister_tm_clones>
  401162:	5d                   	pop    %rbp
  401163:	c6 05 36 af 20 00 01 	movb   $0x1,0x20af36(%rip)        # 60c0a0 <__TMC_END__>
  40116a:	f3 c3                	repz retq 
  40116c:	0f 1f 40 00          	nopl   0x0(%rax)

0000000000401170 <frame_dummy>:
  401170:	48 83 3d 88 ac 20 00 	cmpq   $0x0,0x20ac88(%rip)        # 60be00 <__JCR_END__>
  401177:	00 
  401178:	74 1e                	je     401198 <frame_dummy+0x28>
  40117a:	b8 00 00 00 00       	mov    $0x0,%eax
  40117f:	48 85 c0             	test   %rax,%rax
  401182:	74 14                	je     401198 <frame_dummy+0x28>
  401184:	55                   	push   %rbp
  401185:	bf 00 be 60 00       	mov    $0x60be00,%edi
  40118a:	48 89 e5             	mov    %rsp,%rbp
  40118d:	ff d0                	callq  *%rax
  40118f:	5d                   	pop    %rbp
  401190:	e9 7b ff ff ff       	jmpq   401110 <register_tm_clones>
  401195:	0f 1f 00             	nopl   (%rax)
  401198:	e9 73 ff ff ff       	jmpq   401110 <register_tm_clones>
  40119d:	0f 1f 00             	nopl   (%rax)

00000000004011a0 <start_spy>:
  4011a0:	55                   	push   %rbp
  4011a1:	be 01 00 00 00       	mov    $0x1,%esi
  4011a6:	48 89 fd             	mov    %rdi,%rbp
  4011a9:	53                   	push   %rbx
  4011aa:	31 db                	xor    %ebx,%ebx
  4011ac:	48 83 ec 08          	sub    $0x8,%rsp
  4011b0:	e8 4b 0e 00 00       	callq  402000 <spy_loop_abs>
  4011b5:	0f 1f 00             	nopl   (%rax)
  4011b8:	48 8d 7c 1d 00       	lea    0x0(%rbp,%rbx,1),%rdi
  4011bd:	be 01 00 00 00       	mov    $0x1,%esi
  4011c2:	48 81 c3 00 01 00 00 	add    $0x100,%rbx
  4011c9:	e8 32 0e 00 00       	callq  402000 <spy_loop_abs>
  4011ce:	48 81 fb 00 40 00 00 	cmp    $0x4000,%rbx
  4011d5:	75 e1                	jne    4011b8 <start_spy+0x18>
  4011d7:	48 83 c4 08          	add    $0x8,%rsp
  4011db:	5b                   	pop    %rbx
  4011dc:	5d                   	pop    %rbp
  4011dd:	c3                   	retq   
  4011de:	66 90                	xchg   %ax,%ax

00000000004011e0 <mod_exp>:
  4011e0:	41 57                	push   %r15
  4011e2:	41 56                	push   %r14
  4011e4:	41 55                	push   %r13
  4011e6:	41 54                	push   %r12
  4011e8:	55                   	push   %rbp
  4011e9:	53                   	push   %rbx
  4011ea:	48 83 ec 18          	sub    $0x18,%rsp
  4011ee:	4c 8b 27             	mov    (%rdi),%r12
  4011f1:	48 8b 6f 08          	mov    0x8(%rdi),%rbp
  4011f5:	48 8b 5f 10          	mov    0x10(%rdi),%rbx
  4011f9:	bf 0a 00 00 00       	mov    $0xa,%edi
  4011fe:	e8 3d f7 ff ff       	callq  400940 <gcry_mpi_new@plt>
  401203:	bf 0a 00 00 00       	mov    $0xa,%edi
  401208:	48 89 44 24 08       	mov    %rax,0x8(%rsp)
  40120d:	e8 2e f7 ff ff       	callq  400940 <gcry_mpi_new@plt>
  401212:	bf 0a 00 00 00       	mov    $0xa,%edi
  401217:	49 89 c7             	mov    %rax,%r15
  40121a:	e8 21 f7 ff ff       	callq  400940 <gcry_mpi_new@plt>
  40121f:	bf 0a 00 00 00       	mov    $0xa,%edi
  401224:	49 89 c6             	mov    %rax,%r14
  401227:	e8 14 f7 ff ff       	callq  400940 <gcry_mpi_new@plt>
  40122c:	4c 89 e2             	mov    %r12,%rdx
  40122f:	49 89 c5             	mov    %rax,%r13
  401232:	be 24 b0 40 00       	mov    $0x40b024,%esi
  401237:	bf 01 00 00 00       	mov    $0x1,%edi
  40123c:	31 c0                	xor    %eax,%eax
  40123e:	e8 4d f7 ff ff       	callq  400990 <__printf_chk@plt>
  401243:	4c 89 e6             	mov    %r12,%rsi
  401246:	4c 89 ff             	mov    %r15,%rdi
  401249:	e8 12 f7 ff ff       	callq  400960 <gcry_mpi_set_ui@plt>
  40124e:	48 89 ea             	mov    %rbp,%rdx
  401251:	49 89 c4             	mov    %rax,%r12
  401254:	be 35 b0 40 00       	mov    $0x40b035,%esi
  401259:	bf 01 00 00 00       	mov    $0x1,%edi
  40125e:	31 c0                	xor    %eax,%eax
  401260:	e8 2b f7 ff ff       	callq  400990 <__printf_chk@plt>
  401265:	48 89 ee             	mov    %rbp,%rsi
  401268:	4c 89 f7             	mov    %r14,%rdi
  40126b:	e8 f0 f6 ff ff       	callq  400960 <gcry_mpi_set_ui@plt>
  401270:	48 89 da             	mov    %rbx,%rdx
  401273:	48 89 c5             	mov    %rax,%rbp
  401276:	be 46 b0 40 00       	mov    $0x40b046,%esi
  40127b:	bf 01 00 00 00       	mov    $0x1,%edi
  401280:	31 c0                	xor    %eax,%eax
  401282:	e8 09 f7 ff ff       	callq  400990 <__printf_chk@plt>
  401287:	48 89 de             	mov    %rbx,%rsi
  40128a:	4c 89 ef             	mov    %r13,%rdi
  40128d:	e8 ce f6 ff ff       	callq  400960 <gcry_mpi_set_ui@plt>
  401292:	48 8b 7c 24 08       	mov    0x8(%rsp),%rdi
  401297:	48 89 c1             	mov    %rax,%rcx
  40129a:	48 89 ea             	mov    %rbp,%rdx
  40129d:	4c 89 e6             	mov    %r12,%rsi
  4012a0:	e8 5b f6 ff ff       	callq  400900 <gcry_mpi_powm@plt>
  4012a5:	48 83 c4 18          	add    $0x18,%rsp
  4012a9:	5b                   	pop    %rbx
  4012aa:	5d                   	pop    %rbp
  4012ab:	41 5c                	pop    %r12
  4012ad:	41 5d                	pop    %r13
  4012af:	41 5e                	pop    %r14
  4012b1:	41 5f                	pop    %r15
  4012b3:	c3                   	retq   
  4012b4:	66 66 66 2e 0f 1f 84 	data32 data32 nopw %cs:0x0(%rax,%rax,1)
  4012bb:	00 00 00 00 00 

00000000004012c0 <save>:
  4012c0:	55                   	push   %rbp
  4012c1:	ba 64 00 00 00       	mov    $0x64,%edx
  4012c6:	48 89 f5             	mov    %rsi,%rbp
  4012c9:	48 89 fe             	mov    %rdi,%rsi
  4012cc:	53                   	push   %rbx
  4012cd:	48 83 ec 78          	sub    $0x78,%rsp
  4012d1:	48 89 e7             	mov    %rsp,%rdi
  4012d4:	64 48 8b 04 25 28 00 	mov    %fs:0x28,%rax
  4012db:	00 00 
  4012dd:	48 89 44 24 68       	mov    %rax,0x68(%rsp)
  4012e2:	31 c0                	xor    %eax,%eax
  4012e4:	e8 87 f6 ff ff       	callq  400970 <__stpcpy_chk@plt>
  4012e9:	be 57 b0 40 00       	mov    $0x40b057,%esi
  4012ee:	48 89 e7             	mov    %rsp,%rdi
  4012f1:	c7 00 2e 62 69 6e    	movl   $0x6e69622e,(%rax)
  4012f7:	c6 40 04 00          	movb   $0x0,0x4(%rax)
  4012fb:	e8 a0 f6 ff ff       	callq  4009a0 <fopen@plt>
  401300:	ba 40 00 00 00       	mov    $0x40,%edx
  401305:	48 89 c3             	mov    %rax,%rbx
  401308:	48 89 c1             	mov    %rax,%rcx
  40130b:	be 00 01 00 00       	mov    $0x100,%esi
  401310:	48 89 ef             	mov    %rbp,%rdi
  401313:	e8 b8 f6 ff ff       	callq  4009d0 <fwrite@plt>
  401318:	48 89 df             	mov    %rbx,%rdi
  40131b:	e8 f0 f5 ff ff       	callq  400910 <fclose@plt>
  401320:	48 8b 44 24 68       	mov    0x68(%rsp),%rax
  401325:	64 48 33 04 25 28 00 	xor    %fs:0x28,%rax
  40132c:	00 00 
  40132e:	75 07                	jne    401337 <save+0x77>
  401330:	48 83 c4 78          	add    $0x78,%rsp
  401334:	5b                   	pop    %rbx
  401335:	5d                   	pop    %rbp
  401336:	c3                   	retq   
  401337:	e8 e4 f5 ff ff       	callq  400920 <__stack_chk_fail@plt>
  40133c:	66 2e 0f 1f 84 00 00 	nopw   %cs:0x0(%rax,%rax,1)
  401343:	00 00 00 
  401346:	66 2e 0f 1f 84 00 00 	nopw   %cs:0x0(%rax,%rax,1)
  40134d:	00 00 00 
  401350:	66 2e 0f 1f 84 00 00 	nopw   %cs:0x0(%rax,%rax,1)
  401357:	00 00 00 
  40135a:	66 2e 0f 1f 84 00 00 	nopw   %cs:0x0(%rax,%rax,1)
  401361:	00 00 00 
  401364:	66 2e 0f 1f 84 00 00 	nopw   %cs:0x0(%rax,%rax,1)
  40136b:	00 00 00 
  40136e:	66 2e 0f 1f 84 00 00 	nopw   %cs:0x0(%rax,%rax,1)
  401375:	00 00 00 
  401378:	66 2e 0f 1f 84 00 00 	nopw   %cs:0x0(%rax,%rax,1)
  40137f:	00 00 00 
  401382:	66 2e 0f 1f 84 00 00 	nopw   %cs:0x0(%rax,%rax,1)
  401389:	00 00 00 
  40138c:	66 2e 0f 1f 84 00 00 	nopw   %cs:0x0(%rax,%rax,1)
  401393:	00 00 00 
  401396:	66 2e 0f 1f 84 00 00 	nopw   %cs:0x0(%rax,%rax,1)
  40139d:	00 00 00 
  4013a0:	66 2e 0f 1f 84 00 00 	nopw   %cs:0x0(%rax,%rax,1)
  4013a7:	00 00 00 
  4013aa:	66 2e 0f 1f 84 00 00 	nopw   %cs:0x0(%rax,%rax,1)
  4013b1:	00 00 00 
  4013b4:	66 2e 0f 1f 84 00 00 	nopw   %cs:0x0(%rax,%rax,1)
  4013bb:	00 00 00 
  4013be:	66 2e 0f 1f 84 00 00 	nopw   %cs:0x0(%rax,%rax,1)
  4013c5:	00 00 00 
  4013c8:	66 2e 0f 1f 84 00 00 	nopw   %cs:0x0(%rax,%rax,1)
  4013cf:	00 00 00 
  4013d2:	66 2e 0f 1f 84 00 00 	nopw   %cs:0x0(%rax,%rax,1)
  4013d9:	00 00 00 
  4013dc:	66 2e 0f 1f 84 00 00 	nopw   %cs:0x0(%rax,%rax,1)
  4013e3:	00 00 00 
  4013e6:	66 2e 0f 1f 84 00 00 	nopw   %cs:0x0(%rax,%rax,1)
  4013ed:	00 00 00 
  4013f0:	66 2e 0f 1f 84 00 00 	nopw   %cs:0x0(%rax,%rax,1)
  4013f7:	00 00 00 
  4013fa:	66 2e 0f 1f 84 00 00 	nopw   %cs:0x0(%rax,%rax,1)
  401401:	00 00 00 
  401404:	66 2e 0f 1f 84 00 00 	nopw   %cs:0x0(%rax,%rax,1)
  40140b:	00 00 00 
  40140e:	66 2e 0f 1f 84 00 00 	nopw   %cs:0x0(%rax,%rax,1)
  401415:	00 00 00 
  401418:	66 2e 0f 1f 84 00 00 	nopw   %cs:0x0(%rax,%rax,1)
  40141f:	00 00 00 
  401422:	66 2e 0f 1f 84 00 00 	nopw   %cs:0x0(%rax,%rax,1)
  401429:	00 00 00 
  40142c:	66 2e 0f 1f 84 00 00 	nopw   %cs:0x0(%rax,%rax,1)
  401433:	00 00 00 
  401436:	66 2e 0f 1f 84 00 00 	nopw   %cs:0x0(%rax,%rax,1)
  40143d:	00 00 00 
  401440:	66 2e 0f 1f 84 00 00 	nopw   %cs:0x0(%rax,%rax,1)
  401447:	00 00 00 
  40144a:	66 2e 0f 1f 84 00 00 	nopw   %cs:0x0(%rax,%rax,1)
  401451:	00 00 00 
  401454:	66 2e 0f 1f 84 00 00 	nopw   %cs:0x0(%rax,%rax,1)
  40145b:	00 00 00 
  40145e:	66 2e 0f 1f 84 00 00 	nopw   %cs:0x0(%rax,%rax,1)
  401465:	00 00 00 
  401468:	66 2e 0f 1f 84 00 00 	nopw   %cs:0x0(%rax,%rax,1)
  40146f:	00 00 00 
  401472:	66 2e 0f 1f 84 00 00 	nopw   %cs:0x0(%rax,%rax,1)
  401479:	00 00 00 
  40147c:	66 2e 0f 1f 84 00 00 	nopw   %cs:0x0(%rax,%rax,1)
  401483:	00 00 00 
  401486:	66 2e 0f 1f 84 00 00 	nopw   %cs:0x0(%rax,%rax,1)
  40148d:	00 00 00 
  401490:	66 2e 0f 1f 84 00 00 	nopw   %cs:0x0(%rax,%rax,1)
  401497:	00 00 00 
  40149a:	66 2e 0f 1f 84 00 00 	nopw   %cs:0x0(%rax,%rax,1)
  4014a1:	00 00 00 
  4014a4:	66 2e 0f 1f 84 00 00 	nopw   %cs:0x0(%rax,%rax,1)
  4014ab:	00 00 00 
  4014ae:	66 2e 0f 1f 84 00 00 	nopw   %cs:0x0(%rax,%rax,1)
  4014b5:	00 00 00 
  4014b8:	66 2e 0f 1f 84 00 00 	nopw   %cs:0x0(%rax,%rax,1)
  4014bf:	00 00 00 
  4014c2:	66 2e 0f 1f 84 00 00 	nopw   %cs:0x0(%rax,%rax,1)
  4014c9:	00 00 00 
  4014cc:	66 2e 0f 1f 84 00 00 	nopw   %cs:0x0(%rax,%rax,1)
  4014d3:	00 00 00 
  4014d6:	66 2e 0f 1f 84 00 00 	nopw   %cs:0x0(%rax,%rax,1)
  4014dd:	00 00 00 
  4014e0:	66 2e 0f 1f 84 00 00 	nopw   %cs:0x0(%rax,%rax,1)
  4014e7:	00 00 00 
  4014ea:	66 2e 0f 1f 84 00 00 	nopw   %cs:0x0(%rax,%rax,1)
  4014f1:	00 00 00 
  4014f4:	66 2e 0f 1f 84 00 00 	nopw   %cs:0x0(%rax,%rax,1)
  4014fb:	00 00 00 
  4014fe:	66 2e 0f 1f 84 00 00 	nopw   %cs:0x0(%rax,%rax,1)
  401505:	00 00 00 
  401508:	66 2e 0f 1f 84 00 00 	nopw   %cs:0x0(%rax,%rax,1)
  40150f:	00 00 00 
  401512:	66 2e 0f 1f 84 00 00 	nopw   %cs:0x0(%rax,%rax,1)
  401519:	00 00 00 
  40151c:	66 2e 0f 1f 84 00 00 	nopw   %cs:0x0(%rax,%rax,1)
  401523:	00 00 00 
  401526:	66 2e 0f 1f 84 00 00 	nopw   %cs:0x0(%rax,%rax,1)
  40152d:	00 00 00 
  401530:	66 2e 0f 1f 84 00 00 	nopw   %cs:0x0(%rax,%rax,1)
  401537:	00 00 00 
  40153a:	66 2e 0f 1f 84 00 00 	nopw   %cs:0x0(%rax,%rax,1)
  401541:	00 00 00 
  401544:	66 2e 0f 1f 84 00 00 	nopw   %cs:0x0(%rax,%rax,1)
  40154b:	00 00 00 
  40154e:	66 2e 0f 1f 84 00 00 	nopw   %cs:0x0(%rax,%rax,1)
  401555:	00 00 00 
  401558:	66 2e 0f 1f 84 00 00 	nopw   %cs:0x0(%rax,%rax,1)
  40155f:	00 00 00 
  401562:	66 2e 0f 1f 84 00 00 	nopw   %cs:0x0(%rax,%rax,1)
  401569:	00 00 00 
  40156c:	66 2e 0f 1f 84 00 00 	nopw   %cs:0x0(%rax,%rax,1)
  401573:	00 00 00 
  401576:	66 2e 0f 1f 84 00 00 	nopw   %cs:0x0(%rax,%rax,1)
  40157d:	00 00 00 
  401580:	66 2e 0f 1f 84 00 00 	nopw   %cs:0x0(%rax,%rax,1)
  401587:	00 00 00 
  40158a:	66 2e 0f 1f 84 00 00 	nopw   %cs:0x0(%rax,%rax,1)
  401591:	00 00 00 
  401594:	66 2e 0f 1f 84 00 00 	nopw   %cs:0x0(%rax,%rax,1)
  40159b:	00 00 00 
  40159e:	66 2e 0f 1f 84 00 00 	nopw   %cs:0x0(%rax,%rax,1)
  4015a5:	00 00 00 
  4015a8:	66 2e 0f 1f 84 00 00 	nopw   %cs:0x0(%rax,%rax,1)
  4015af:	00 00 00 
  4015b2:	66 2e 0f 1f 84 00 00 	nopw   %cs:0x0(%rax,%rax,1)
  4015b9:	00 00 00 
  4015bc:	66 2e 0f 1f 84 00 00 	nopw   %cs:0x0(%rax,%rax,1)
  4015c3:	00 00 00 
  4015c6:	66 2e 0f 1f 84 00 00 	nopw   %cs:0x0(%rax,%rax,1)
  4015cd:	00 00 00 
  4015d0:	66 2e 0f 1f 84 00 00 	nopw   %cs:0x0(%rax,%rax,1)
  4015d7:	00 00 00 
  4015da:	66 2e 0f 1f 84 00 00 	nopw   %cs:0x0(%rax,%rax,1)
  4015e1:	00 00 00 
  4015e4:	66 2e 0f 1f 84 00 00 	nopw   %cs:0x0(%rax,%rax,1)
  4015eb:	00 00 00 
  4015ee:	66 2e 0f 1f 84 00 00 	nopw   %cs:0x0(%rax,%rax,1)
  4015f5:	00 00 00 
  4015f8:	66 2e 0f 1f 84 00 00 	nopw   %cs:0x0(%rax,%rax,1)
  4015ff:	00 00 00 
  401602:	66 2e 0f 1f 84 00 00 	nopw   %cs:0x0(%rax,%rax,1)
  401609:	00 00 00 
  40160c:	66 2e 0f 1f 84 00 00 	nopw   %cs:0x0(%rax,%rax,1)
  401613:	00 00 00 
  401616:	66 2e 0f 1f 84 00 00 	nopw   %cs:0x0(%rax,%rax,1)
  40161d:	00 00 00 
  401620:	66 2e 0f 1f 84 00 00 	nopw   %cs:0x0(%rax,%rax,1)
  401627:	00 00 00 
  40162a:	66 2e 0f 1f 84 00 00 	nopw   %cs:0x0(%rax,%rax,1)
  401631:	00 00 00 
  401634:	66 2e 0f 1f 84 00 00 	nopw   %cs:0x0(%rax,%rax,1)
  40163b:	00 00 00 
  40163e:	66 2e 0f 1f 84 00 00 	nopw   %cs:0x0(%rax,%rax,1)
  401645:	00 00 00 
  401648:	66 2e 0f 1f 84 00 00 	nopw   %cs:0x0(%rax,%rax,1)
  40164f:	00 00 00 
  401652:	66 2e 0f 1f 84 00 00 	nopw   %cs:0x0(%rax,%rax,1)
  401659:	00 00 00 
  40165c:	66 2e 0f 1f 84 00 00 	nopw   %cs:0x0(%rax,%rax,1)
  401663:	00 00 00 
  401666:	66 2e 0f 1f 84 00 00 	nopw   %cs:0x0(%rax,%rax,1)
  40166d:	00 00 00 
  401670:	66 2e 0f 1f 84 00 00 	nopw   %cs:0x0(%rax,%rax,1)
  401677:	00 00 00 
  40167a:	66 2e 0f 1f 84 00 00 	nopw   %cs:0x0(%rax,%rax,1)
  401681:	00 00 00 
  401684:	66 2e 0f 1f 84 00 00 	nopw   %cs:0x0(%rax,%rax,1)
  40168b:	00 00 00 
  40168e:	66 2e 0f 1f 84 00 00 	nopw   %cs:0x0(%rax,%rax,1)
  401695:	00 00 00 
  401698:	66 2e 0f 1f 84 00 00 	nopw   %cs:0x0(%rax,%rax,1)
  40169f:	00 00 00 
  4016a2:	66 2e 0f 1f 84 00 00 	nopw   %cs:0x0(%rax,%rax,1)
  4016a9:	00 00 00 
  4016ac:	66 2e 0f 1f 84 00 00 	nopw   %cs:0x0(%rax,%rax,1)
  4016b3:	00 00 00 
  4016b6:	66 2e 0f 1f 84 00 00 	nopw   %cs:0x0(%rax,%rax,1)
  4016bd:	00 00 00 
  4016c0:	66 2e 0f 1f 84 00 00 	nopw   %cs:0x0(%rax,%rax,1)
  4016c7:	00 00 00 
  4016ca:	66 2e 0f 1f 84 00 00 	nopw   %cs:0x0(%rax,%rax,1)
  4016d1:	00 00 00 
  4016d4:	66 2e 0f 1f 84 00 00 	nopw   %cs:0x0(%rax,%rax,1)
  4016db:	00 00 00 
  4016de:	66 2e 0f 1f 84 00 00 	nopw   %cs:0x0(%rax,%rax,1)
  4016e5:	00 00 00 
  4016e8:	66 2e 0f 1f 84 00 00 	nopw   %cs:0x0(%rax,%rax,1)
  4016ef:	00 00 00 
  4016f2:	66 2e 0f 1f 84 00 00 	nopw   %cs:0x0(%rax,%rax,1)
  4016f9:	00 00 00 
  4016fc:	66 2e 0f 1f 84 00 00 	nopw   %cs:0x0(%rax,%rax,1)
  401703:	00 00 00 
  401706:	66 2e 0f 1f 84 00 00 	nopw   %cs:0x0(%rax,%rax,1)
  40170d:	00 00 00 
  401710:	66 2e 0f 1f 84 00 00 	nopw   %cs:0x0(%rax,%rax,1)
  401717:	00 00 00 
  40171a:	66 2e 0f 1f 84 00 00 	nopw   %cs:0x0(%rax,%rax,1)
  401721:	00 00 00 
  401724:	66 2e 0f 1f 84 00 00 	nopw   %cs:0x0(%rax,%rax,1)
  40172b:	00 00 00 
  40172e:	66 2e 0f 1f 84 00 00 	nopw   %cs:0x0(%rax,%rax,1)
  401735:	00 00 00 
  401738:	66 2e 0f 1f 84 00 00 	nopw   %cs:0x0(%rax,%rax,1)
  40173f:	00 00 00 
  401742:	66 2e 0f 1f 84 00 00 	nopw   %cs:0x0(%rax,%rax,1)
  401749:	00 00 00 
  40174c:	66 2e 0f 1f 84 00 00 	nopw   %cs:0x0(%rax,%rax,1)
  401753:	00 00 00 
  401756:	66 2e 0f 1f 84 00 00 	nopw   %cs:0x0(%rax,%rax,1)
  40175d:	00 00 00 
  401760:	66 2e 0f 1f 84 00 00 	nopw   %cs:0x0(%rax,%rax,1)
  401767:	00 00 00 
  40176a:	66 2e 0f 1f 84 00 00 	nopw   %cs:0x0(%rax,%rax,1)
  401771:	00 00 00 
  401774:	66 2e 0f 1f 84 00 00 	nopw   %cs:0x0(%rax,%rax,1)
  40177b:	00 00 00 
  40177e:	66 2e 0f 1f 84 00 00 	nopw   %cs:0x0(%rax,%rax,1)
  401785:	00 00 00 
  401788:	66 2e 0f 1f 84 00 00 	nopw   %cs:0x0(%rax,%rax,1)
  40178f:	00 00 00 
  401792:	66 2e 0f 1f 84 00 00 	nopw   %cs:0x0(%rax,%rax,1)
  401799:	00 00 00 
  40179c:	66 2e 0f 1f 84 00 00 	nopw   %cs:0x0(%rax,%rax,1)
  4017a3:	00 00 00 
  4017a6:	66 2e 0f 1f 84 00 00 	nopw   %cs:0x0(%rax,%rax,1)
  4017ad:	00 00 00 
  4017b0:	66 2e 0f 1f 84 00 00 	nopw   %cs:0x0(%rax,%rax,1)
  4017b7:	00 00 00 
  4017ba:	66 2e 0f 1f 84 00 00 	nopw   %cs:0x0(%rax,%rax,1)
  4017c1:	00 00 00 
  4017c4:	66 2e 0f 1f 84 00 00 	nopw   %cs:0x0(%rax,%rax,1)
  4017cb:	00 00 00 
  4017ce:	66 2e 0f 1f 84 00 00 	nopw   %cs:0x0(%rax,%rax,1)
  4017d5:	00 00 00 
  4017d8:	66 2e 0f 1f 84 00 00 	nopw   %cs:0x0(%rax,%rax,1)
  4017df:	00 00 00 
  4017e2:	66 2e 0f 1f 84 00 00 	nopw   %cs:0x0(%rax,%rax,1)
  4017e9:	00 00 00 
  4017ec:	66 2e 0f 1f 84 00 00 	nopw   %cs:0x0(%rax,%rax,1)
  4017f3:	00 00 00 
  4017f6:	66 2e 0f 1f 84 00 00 	nopw   %cs:0x0(%rax,%rax,1)
  4017fd:	00 00 00 
  401800:	66 2e 0f 1f 84 00 00 	nopw   %cs:0x0(%rax,%rax,1)
  401807:	00 00 00 
  40180a:	66 2e 0f 1f 84 00 00 	nopw   %cs:0x0(%rax,%rax,1)
  401811:	00 00 00 
  401814:	66 2e 0f 1f 84 00 00 	nopw   %cs:0x0(%rax,%rax,1)
  40181b:	00 00 00 
  40181e:	66 2e 0f 1f 84 00 00 	nopw   %cs:0x0(%rax,%rax,1)
  401825:	00 00 00 
  401828:	66 2e 0f 1f 84 00 00 	nopw   %cs:0x0(%rax,%rax,1)
  40182f:	00 00 00 
  401832:	66 2e 0f 1f 84 00 00 	nopw   %cs:0x0(%rax,%rax,1)
  401839:	00 00 00 
  40183c:	66 2e 0f 1f 84 00 00 	nopw   %cs:0x0(%rax,%rax,1)
  401843:	00 00 00 
  401846:	66 2e 0f 1f 84 00 00 	nopw   %cs:0x0(%rax,%rax,1)
  40184d:	00 00 00 
  401850:	66 2e 0f 1f 84 00 00 	nopw   %cs:0x0(%rax,%rax,1)
  401857:	00 00 00 
  40185a:	66 2e 0f 1f 84 00 00 	nopw   %cs:0x0(%rax,%rax,1)
  401861:	00 00 00 
  401864:	66 2e 0f 1f 84 00 00 	nopw   %cs:0x0(%rax,%rax,1)
  40186b:	00 00 00 
  40186e:	66 2e 0f 1f 84 00 00 	nopw   %cs:0x0(%rax,%rax,1)
  401875:	00 00 00 
  401878:	66 2e 0f 1f 84 00 00 	nopw   %cs:0x0(%rax,%rax,1)
  40187f:	00 00 00 
  401882:	66 2e 0f 1f 84 00 00 	nopw   %cs:0x0(%rax,%rax,1)
  401889:	00 00 00 
  40188c:	66 2e 0f 1f 84 00 00 	nopw   %cs:0x0(%rax,%rax,1)
  401893:	00 00 00 
  401896:	66 2e 0f 1f 84 00 00 	nopw   %cs:0x0(%rax,%rax,1)
  40189d:	00 00 00 
  4018a0:	66 2e 0f 1f 84 00 00 	nopw   %cs:0x0(%rax,%rax,1)
  4018a7:	00 00 00 
  4018aa:	66 2e 0f 1f 84 00 00 	nopw   %cs:0x0(%rax,%rax,1)
  4018b1:	00 00 00 
  4018b4:	66 2e 0f 1f 84 00 00 	nopw   %cs:0x0(%rax,%rax,1)
  4018bb:	00 00 00 
  4018be:	66 2e 0f 1f 84 00 00 	nopw   %cs:0x0(%rax,%rax,1)
  4018c5:	00 00 00 
  4018c8:	66 2e 0f 1f 84 00 00 	nopw   %cs:0x0(%rax,%rax,1)
  4018cf:	00 00 00 
  4018d2:	66 2e 0f 1f 84 00 00 	nopw   %cs:0x0(%rax,%rax,1)
  4018d9:	00 00 00 
  4018dc:	66 2e 0f 1f 84 00 00 	nopw   %cs:0x0(%rax,%rax,1)
  4018e3:	00 00 00 
  4018e6:	66 2e 0f 1f 84 00 00 	nopw   %cs:0x0(%rax,%rax,1)
  4018ed:	00 00 00 
  4018f0:	66 2e 0f 1f 84 00 00 	nopw   %cs:0x0(%rax,%rax,1)
  4018f7:	00 00 00 
  4018fa:	66 2e 0f 1f 84 00 00 	nopw   %cs:0x0(%rax,%rax,1)
  401901:	00 00 00 
  401904:	66 2e 0f 1f 84 00 00 	nopw   %cs:0x0(%rax,%rax,1)
  40190b:	00 00 00 
  40190e:	66 2e 0f 1f 84 00 00 	nopw   %cs:0x0(%rax,%rax,1)
  401915:	00 00 00 
  401918:	66 2e 0f 1f 84 00 00 	nopw   %cs:0x0(%rax,%rax,1)
  40191f:	00 00 00 
  401922:	66 2e 0f 1f 84 00 00 	nopw   %cs:0x0(%rax,%rax,1)
  401929:	00 00 00 
  40192c:	66 2e 0f 1f 84 00 00 	nopw   %cs:0x0(%rax,%rax,1)
  401933:	00 00 00 
  401936:	66 2e 0f 1f 84 00 00 	nopw   %cs:0x0(%rax,%rax,1)
  40193d:	00 00 00 
  401940:	66 2e 0f 1f 84 00 00 	nopw   %cs:0x0(%rax,%rax,1)
  401947:	00 00 00 
  40194a:	66 2e 0f 1f 84 00 00 	nopw   %cs:0x0(%rax,%rax,1)
  401951:	00 00 00 
  401954:	66 2e 0f 1f 84 00 00 	nopw   %cs:0x0(%rax,%rax,1)
  40195b:	00 00 00 
  40195e:	66 2e 0f 1f 84 00 00 	nopw   %cs:0x0(%rax,%rax,1)
  401965:	00 00 00 
  401968:	66 2e 0f 1f 84 00 00 	nopw   %cs:0x0(%rax,%rax,1)
  40196f:	00 00 00 
  401972:	66 2e 0f 1f 84 00 00 	nopw   %cs:0x0(%rax,%rax,1)
  401979:	00 00 00 
  40197c:	66 2e 0f 1f 84 00 00 	nopw   %cs:0x0(%rax,%rax,1)
  401983:	00 00 00 
  401986:	66 2e 0f 1f 84 00 00 	nopw   %cs:0x0(%rax,%rax,1)
  40198d:	00 00 00 
  401990:	66 2e 0f 1f 84 00 00 	nopw   %cs:0x0(%rax,%rax,1)
  401997:	00 00 00 
  40199a:	66 2e 0f 1f 84 00 00 	nopw   %cs:0x0(%rax,%rax,1)
  4019a1:	00 00 00 
  4019a4:	66 2e 0f 1f 84 00 00 	nopw   %cs:0x0(%rax,%rax,1)
  4019ab:	00 00 00 
  4019ae:	66 2e 0f 1f 84 00 00 	nopw   %cs:0x0(%rax,%rax,1)
  4019b5:	00 00 00 
  4019b8:	66 2e 0f 1f 84 00 00 	nopw   %cs:0x0(%rax,%rax,1)
  4019bf:	00 00 00 
  4019c2:	66 2e 0f 1f 84 00 00 	nopw   %cs:0x0(%rax,%rax,1)
  4019c9:	00 00 00 
  4019cc:	66 2e 0f 1f 84 00 00 	nopw   %cs:0x0(%rax,%rax,1)
  4019d3:	00 00 00 
  4019d6:	66 2e 0f 1f 84 00 00 	nopw   %cs:0x0(%rax,%rax,1)
  4019dd:	00 00 00 
  4019e0:	66 2e 0f 1f 84 00 00 	nopw   %cs:0x0(%rax,%rax,1)
  4019e7:	00 00 00 
  4019ea:	66 2e 0f 1f 84 00 00 	nopw   %cs:0x0(%rax,%rax,1)
  4019f1:	00 00 00 
  4019f4:	66 2e 0f 1f 84 00 00 	nopw   %cs:0x0(%rax,%rax,1)
  4019fb:	00 00 00 
  4019fe:	66 2e 0f 1f 84 00 00 	nopw   %cs:0x0(%rax,%rax,1)
  401a05:	00 00 00 
  401a08:	66 2e 0f 1f 84 00 00 	nopw   %cs:0x0(%rax,%rax,1)
  401a0f:	00 00 00 
  401a12:	66 2e 0f 1f 84 00 00 	nopw   %cs:0x0(%rax,%rax,1)
  401a19:	00 00 00 
  401a1c:	66 2e 0f 1f 84 00 00 	nopw   %cs:0x0(%rax,%rax,1)
  401a23:	00 00 00 
  401a26:	66 2e 0f 1f 84 00 00 	nopw   %cs:0x0(%rax,%rax,1)
  401a2d:	00 00 00 
  401a30:	66 2e 0f 1f 84 00 00 	nopw   %cs:0x0(%rax,%rax,1)
  401a37:	00 00 00 
  401a3a:	66 2e 0f 1f 84 00 00 	nopw   %cs:0x0(%rax,%rax,1)
  401a41:	00 00 00 
  401a44:	66 2e 0f 1f 84 00 00 	nopw   %cs:0x0(%rax,%rax,1)
  401a4b:	00 00 00 
  401a4e:	66 2e 0f 1f 84 00 00 	nopw   %cs:0x0(%rax,%rax,1)
  401a55:	00 00 00 
  401a58:	66 2e 0f 1f 84 00 00 	nopw   %cs:0x0(%rax,%rax,1)
  401a5f:	00 00 00 
  401a62:	66 2e 0f 1f 84 00 00 	nopw   %cs:0x0(%rax,%rax,1)
  401a69:	00 00 00 
  401a6c:	66 2e 0f 1f 84 00 00 	nopw   %cs:0x0(%rax,%rax,1)
  401a73:	00 00 00 
  401a76:	66 2e 0f 1f 84 00 00 	nopw   %cs:0x0(%rax,%rax,1)
  401a7d:	00 00 00 
  401a80:	66 2e 0f 1f 84 00 00 	nopw   %cs:0x0(%rax,%rax,1)
  401a87:	00 00 00 
  401a8a:	66 2e 0f 1f 84 00 00 	nopw   %cs:0x0(%rax,%rax,1)
  401a91:	00 00 00 
  401a94:	66 2e 0f 1f 84 00 00 	nopw   %cs:0x0(%rax,%rax,1)
  401a9b:	00 00 00 
  401a9e:	66 2e 0f 1f 84 00 00 	nopw   %cs:0x0(%rax,%rax,1)
  401aa5:	00 00 00 
  401aa8:	66 2e 0f 1f 84 00 00 	nopw   %cs:0x0(%rax,%rax,1)
  401aaf:	00 00 00 
  401ab2:	66 2e 0f 1f 84 00 00 	nopw   %cs:0x0(%rax,%rax,1)
  401ab9:	00 00 00 
  401abc:	66 2e 0f 1f 84 00 00 	nopw   %cs:0x0(%rax,%rax,1)
  401ac3:	00 00 00 
  401ac6:	66 2e 0f 1f 84 00 00 	nopw   %cs:0x0(%rax,%rax,1)
  401acd:	00 00 00 
  401ad0:	66 2e 0f 1f 84 00 00 	nopw   %cs:0x0(%rax,%rax,1)
  401ad7:	00 00 00 
  401ada:	66 2e 0f 1f 84 00 00 	nopw   %cs:0x0(%rax,%rax,1)
  401ae1:	00 00 00 
  401ae4:	66 2e 0f 1f 84 00 00 	nopw   %cs:0x0(%rax,%rax,1)
  401aeb:	00 00 00 
  401aee:	66 2e 0f 1f 84 00 00 	nopw   %cs:0x0(%rax,%rax,1)
  401af5:	00 00 00 
  401af8:	66 2e 0f 1f 84 00 00 	nopw   %cs:0x0(%rax,%rax,1)
  401aff:	00 00 00 
  401b02:	66 2e 0f 1f 84 00 00 	nopw   %cs:0x0(%rax,%rax,1)
  401b09:	00 00 00 
  401b0c:	66 2e 0f 1f 84 00 00 	nopw   %cs:0x0(%rax,%rax,1)
  401b13:	00 00 00 
  401b16:	66 2e 0f 1f 84 00 00 	nopw   %cs:0x0(%rax,%rax,1)
  401b1d:	00 00 00 
  401b20:	66 2e 0f 1f 84 00 00 	nopw   %cs:0x0(%rax,%rax,1)
  401b27:	00 00 00 
  401b2a:	66 2e 0f 1f 84 00 00 	nopw   %cs:0x0(%rax,%rax,1)
  401b31:	00 00 00 
  401b34:	66 2e 0f 1f 84 00 00 	nopw   %cs:0x0(%rax,%rax,1)
  401b3b:	00 00 00 
  401b3e:	66 2e 0f 1f 84 00 00 	nopw   %cs:0x0(%rax,%rax,1)
  401b45:	00 00 00 
  401b48:	66 2e 0f 1f 84 00 00 	nopw   %cs:0x0(%rax,%rax,1)
  401b4f:	00 00 00 
  401b52:	66 2e 0f 1f 84 00 00 	nopw   %cs:0x0(%rax,%rax,1)
  401b59:	00 00 00 
  401b5c:	66 2e 0f 1f 84 00 00 	nopw   %cs:0x0(%rax,%rax,1)
  401b63:	00 00 00 
  401b66:	66 2e 0f 1f 84 00 00 	nopw   %cs:0x0(%rax,%rax,1)
  401b6d:	00 00 00 
  401b70:	66 2e 0f 1f 84 00 00 	nopw   %cs:0x0(%rax,%rax,1)
  401b77:	00 00 00 
  401b7a:	66 2e 0f 1f 84 00 00 	nopw   %cs:0x0(%rax,%rax,1)
  401b81:	00 00 00 
  401b84:	66 2e 0f 1f 84 00 00 	nopw   %cs:0x0(%rax,%rax,1)
  401b8b:	00 00 00 
  401b8e:	66 2e 0f 1f 84 00 00 	nopw   %cs:0x0(%rax,%rax,1)
  401b95:	00 00 00 
  401b98:	66 2e 0f 1f 84 00 00 	nopw   %cs:0x0(%rax,%rax,1)
  401b9f:	00 00 00 
  401ba2:	66 2e 0f 1f 84 00 00 	nopw   %cs:0x0(%rax,%rax,1)
  401ba9:	00 00 00 
  401bac:	66 2e 0f 1f 84 00 00 	nopw   %cs:0x0(%rax,%rax,1)
  401bb3:	00 00 00 
  401bb6:	66 2e 0f 1f 84 00 00 	nopw   %cs:0x0(%rax,%rax,1)
  401bbd:	00 00 00 
  401bc0:	66 2e 0f 1f 84 00 00 	nopw   %cs:0x0(%rax,%rax,1)
  401bc7:	00 00 00 
  401bca:	66 2e 0f 1f 84 00 00 	nopw   %cs:0x0(%rax,%rax,1)
  401bd1:	00 00 00 
  401bd4:	66 2e 0f 1f 84 00 00 	nopw   %cs:0x0(%rax,%rax,1)
  401bdb:	00 00 00 
  401bde:	66 2e 0f 1f 84 00 00 	nopw   %cs:0x0(%rax,%rax,1)
  401be5:	00 00 00 
  401be8:	66 2e 0f 1f 84 00 00 	nopw   %cs:0x0(%rax,%rax,1)
  401bef:	00 00 00 
  401bf2:	66 2e 0f 1f 84 00 00 	nopw   %cs:0x0(%rax,%rax,1)
  401bf9:	00 00 00 
  401bfc:	66 2e 0f 1f 84 00 00 	nopw   %cs:0x0(%rax,%rax,1)
  401c03:	00 00 00 
  401c06:	66 2e 0f 1f 84 00 00 	nopw   %cs:0x0(%rax,%rax,1)
  401c0d:	00 00 00 
  401c10:	66 2e 0f 1f 84 00 00 	nopw   %cs:0x0(%rax,%rax,1)
  401c17:	00 00 00 
  401c1a:	66 2e 0f 1f 84 00 00 	nopw   %cs:0x0(%rax,%rax,1)
  401c21:	00 00 00 
  401c24:	66 2e 0f 1f 84 00 00 	nopw   %cs:0x0(%rax,%rax,1)
  401c2b:	00 00 00 
  401c2e:	66 2e 0f 1f 84 00 00 	nopw   %cs:0x0(%rax,%rax,1)
  401c35:	00 00 00 
  401c38:	66 2e 0f 1f 84 00 00 	nopw   %cs:0x0(%rax,%rax,1)
  401c3f:	00 00 00 
  401c42:	66 2e 0f 1f 84 00 00 	nopw   %cs:0x0(%rax,%rax,1)
  401c49:	00 00 00 
  401c4c:	66 2e 0f 1f 84 00 00 	nopw   %cs:0x0(%rax,%rax,1)
  401c53:	00 00 00 
  401c56:	66 2e 0f 1f 84 00 00 	nopw   %cs:0x0(%rax,%rax,1)
  401c5d:	00 00 00 
  401c60:	66 2e 0f 1f 84 00 00 	nopw   %cs:0x0(%rax,%rax,1)
  401c67:	00 00 00 
  401c6a:	66 2e 0f 1f 84 00 00 	nopw   %cs:0x0(%rax,%rax,1)
  401c71:	00 00 00 
  401c74:	66 2e 0f 1f 84 00 00 	nopw   %cs:0x0(%rax,%rax,1)
  401c7b:	00 00 00 
  401c7e:	66 2e 0f 1f 84 00 00 	nopw   %cs:0x0(%rax,%rax,1)
  401c85:	00 00 00 
  401c88:	66 2e 0f 1f 84 00 00 	nopw   %cs:0x0(%rax,%rax,1)
  401c8f:	00 00 00 
  401c92:	66 2e 0f 1f 84 00 00 	nopw   %cs:0x0(%rax,%rax,1)
  401c99:	00 00 00 
  401c9c:	66 2e 0f 1f 84 00 00 	nopw   %cs:0x0(%rax,%rax,1)
  401ca3:	00 00 00 
  401ca6:	66 2e 0f 1f 84 00 00 	nopw   %cs:0x0(%rax,%rax,1)
  401cad:	00 00 00 
  401cb0:	66 2e 0f 1f 84 00 00 	nopw   %cs:0x0(%rax,%rax,1)
  401cb7:	00 00 00 
  401cba:	66 2e 0f 1f 84 00 00 	nopw   %cs:0x0(%rax,%rax,1)
  401cc1:	00 00 00 
  401cc4:	66 2e 0f 1f 84 00 00 	nopw   %cs:0x0(%rax,%rax,1)
  401ccb:	00 00 00 
  401cce:	66 2e 0f 1f 84 00 00 	nopw   %cs:0x0(%rax,%rax,1)
  401cd5:	00 00 00 
  401cd8:	66 2e 0f 1f 84 00 00 	nopw   %cs:0x0(%rax,%rax,1)
  401cdf:	00 00 00 
  401ce2:	66 2e 0f 1f 84 00 00 	nopw   %cs:0x0(%rax,%rax,1)
  401ce9:	00 00 00 
  401cec:	66 2e 0f 1f 84 00 00 	nopw   %cs:0x0(%rax,%rax,1)
  401cf3:	00 00 00 
  401cf6:	66 2e 0f 1f 84 00 00 	nopw   %cs:0x0(%rax,%rax,1)
  401cfd:	00 00 00 
  401d00:	66 2e 0f 1f 84 00 00 	nopw   %cs:0x0(%rax,%rax,1)
  401d07:	00 00 00 
  401d0a:	66 2e 0f 1f 84 00 00 	nopw   %cs:0x0(%rax,%rax,1)
  401d11:	00 00 00 
  401d14:	66 2e 0f 1f 84 00 00 	nopw   %cs:0x0(%rax,%rax,1)
  401d1b:	00 00 00 
  401d1e:	66 2e 0f 1f 84 00 00 	nopw   %cs:0x0(%rax,%rax,1)
  401d25:	00 00 00 
  401d28:	66 2e 0f 1f 84 00 00 	nopw   %cs:0x0(%rax,%rax,1)
  401d2f:	00 00 00 
  401d32:	66 2e 0f 1f 84 00 00 	nopw   %cs:0x0(%rax,%rax,1)
  401d39:	00 00 00 
  401d3c:	66 2e 0f 1f 84 00 00 	nopw   %cs:0x0(%rax,%rax,1)
  401d43:	00 00 00 
  401d46:	66 2e 0f 1f 84 00 00 	nopw   %cs:0x0(%rax,%rax,1)
  401d4d:	00 00 00 
  401d50:	66 2e 0f 1f 84 00 00 	nopw   %cs:0x0(%rax,%rax,1)
  401d57:	00 00 00 
  401d5a:	66 2e 0f 1f 84 00 00 	nopw   %cs:0x0(%rax,%rax,1)
  401d61:	00 00 00 
  401d64:	66 2e 0f 1f 84 00 00 	nopw   %cs:0x0(%rax,%rax,1)
  401d6b:	00 00 00 
  401d6e:	66 2e 0f 1f 84 00 00 	nopw   %cs:0x0(%rax,%rax,1)
  401d75:	00 00 00 
  401d78:	66 2e 0f 1f 84 00 00 	nopw   %cs:0x0(%rax,%rax,1)
  401d7f:	00 00 00 
  401d82:	66 2e 0f 1f 84 00 00 	nopw   %cs:0x0(%rax,%rax,1)
  401d89:	00 00 00 
  401d8c:	66 2e 0f 1f 84 00 00 	nopw   %cs:0x0(%rax,%rax,1)
  401d93:	00 00 00 
  401d96:	66 2e 0f 1f 84 00 00 	nopw   %cs:0x0(%rax,%rax,1)
  401d9d:	00 00 00 
  401da0:	66 2e 0f 1f 84 00 00 	nopw   %cs:0x0(%rax,%rax,1)
  401da7:	00 00 00 
  401daa:	66 2e 0f 1f 84 00 00 	nopw   %cs:0x0(%rax,%rax,1)
  401db1:	00 00 00 
  401db4:	66 2e 0f 1f 84 00 00 	nopw   %cs:0x0(%rax,%rax,1)
  401dbb:	00 00 00 
  401dbe:	66 2e 0f 1f 84 00 00 	nopw   %cs:0x0(%rax,%rax,1)
  401dc5:	00 00 00 
  401dc8:	66 2e 0f 1f 84 00 00 	nopw   %cs:0x0(%rax,%rax,1)
  401dcf:	00 00 00 
  401dd2:	66 2e 0f 1f 84 00 00 	nopw   %cs:0x0(%rax,%rax,1)
  401dd9:	00 00 00 
  401ddc:	66 2e 0f 1f 84 00 00 	nopw   %cs:0x0(%rax,%rax,1)
  401de3:	00 00 00 
  401de6:	66 2e 0f 1f 84 00 00 	nopw   %cs:0x0(%rax,%rax,1)
  401ded:	00 00 00 
  401df0:	66 2e 0f 1f 84 00 00 	nopw   %cs:0x0(%rax,%rax,1)
  401df7:	00 00 00 
  401dfa:	66 2e 0f 1f 84 00 00 	nopw   %cs:0x0(%rax,%rax,1)
  401e01:	00 00 00 
  401e04:	66 2e 0f 1f 84 00 00 	nopw   %cs:0x0(%rax,%rax,1)
  401e0b:	00 00 00 
  401e0e:	66 2e 0f 1f 84 00 00 	nopw   %cs:0x0(%rax,%rax,1)
  401e15:	00 00 00 
  401e18:	66 2e 0f 1f 84 00 00 	nopw   %cs:0x0(%rax,%rax,1)
  401e1f:	00 00 00 
  401e22:	66 2e 0f 1f 84 00 00 	nopw   %cs:0x0(%rax,%rax,1)
  401e29:	00 00 00 
  401e2c:	66 2e 0f 1f 84 00 00 	nopw   %cs:0x0(%rax,%rax,1)
  401e33:	00 00 00 
  401e36:	66 2e 0f 1f 84 00 00 	nopw   %cs:0x0(%rax,%rax,1)
  401e3d:	00 00 00 
  401e40:	66 2e 0f 1f 84 00 00 	nopw   %cs:0x0(%rax,%rax,1)
  401e47:	00 00 00 
  401e4a:	66 2e 0f 1f 84 00 00 	nopw   %cs:0x0(%rax,%rax,1)
  401e51:	00 00 00 
  401e54:	66 2e 0f 1f 84 00 00 	nopw   %cs:0x0(%rax,%rax,1)
  401e5b:	00 00 00 
  401e5e:	66 2e 0f 1f 84 00 00 	nopw   %cs:0x0(%rax,%rax,1)
  401e65:	00 00 00 
  401e68:	66 2e 0f 1f 84 00 00 	nopw   %cs:0x0(%rax,%rax,1)
  401e6f:	00 00 00 
  401e72:	66 2e 0f 1f 84 00 00 	nopw   %cs:0x0(%rax,%rax,1)
  401e79:	00 00 00 
  401e7c:	66 2e 0f 1f 84 00 00 	nopw   %cs:0x0(%rax,%rax,1)
  401e83:	00 00 00 
  401e86:	66 2e 0f 1f 84 00 00 	nopw   %cs:0x0(%rax,%rax,1)
  401e8d:	00 00 00 
  401e90:	66 2e 0f 1f 84 00 00 	nopw   %cs:0x0(%rax,%rax,1)
  401e97:	00 00 00 
  401e9a:	66 2e 0f 1f 84 00 00 	nopw   %cs:0x0(%rax,%rax,1)
  401ea1:	00 00 00 
  401ea4:	66 2e 0f 1f 84 00 00 	nopw   %cs:0x0(%rax,%rax,1)
  401eab:	00 00 00 
  401eae:	66 2e 0f 1f 84 00 00 	nopw   %cs:0x0(%rax,%rax,1)
  401eb5:	00 00 00 
  401eb8:	66 2e 0f 1f 84 00 00 	nopw   %cs:0x0(%rax,%rax,1)
  401ebf:	00 00 00 
  401ec2:	66 2e 0f 1f 84 00 00 	nopw   %cs:0x0(%rax,%rax,1)
  401ec9:	00 00 00 
  401ecc:	66 2e 0f 1f 84 00 00 	nopw   %cs:0x0(%rax,%rax,1)
  401ed3:	00 00 00 
  401ed6:	66 2e 0f 1f 84 00 00 	nopw   %cs:0x0(%rax,%rax,1)
  401edd:	00 00 00 
  401ee0:	66 2e 0f 1f 84 00 00 	nopw   %cs:0x0(%rax,%rax,1)
  401ee7:	00 00 00 
  401eea:	66 2e 0f 1f 84 00 00 	nopw   %cs:0x0(%rax,%rax,1)
  401ef1:	00 00 00 
  401ef4:	66 2e 0f 1f 84 00 00 	nopw   %cs:0x0(%rax,%rax,1)
  401efb:	00 00 00 
  401efe:	66 2e 0f 1f 84 00 00 	nopw   %cs:0x0(%rax,%rax,1)
  401f05:	00 00 00 
  401f08:	66 2e 0f 1f 84 00 00 	nopw   %cs:0x0(%rax,%rax,1)
  401f0f:	00 00 00 
  401f12:	66 2e 0f 1f 84 00 00 	nopw   %cs:0x0(%rax,%rax,1)
  401f19:	00 00 00 
  401f1c:	66 2e 0f 1f 84 00 00 	nopw   %cs:0x0(%rax,%rax,1)
  401f23:	00 00 00 
  401f26:	66 2e 0f 1f 84 00 00 	nopw   %cs:0x0(%rax,%rax,1)
  401f2d:	00 00 00 
  401f30:	66 2e 0f 1f 84 00 00 	nopw   %cs:0x0(%rax,%rax,1)
  401f37:	00 00 00 
  401f3a:	66 2e 0f 1f 84 00 00 	nopw   %cs:0x0(%rax,%rax,1)
  401f41:	00 00 00 
  401f44:	66 2e 0f 1f 84 00 00 	nopw   %cs:0x0(%rax,%rax,1)
  401f4b:	00 00 00 
  401f4e:	66 2e 0f 1f 84 00 00 	nopw   %cs:0x0(%rax,%rax,1)
  401f55:	00 00 00 
  401f58:	66 2e 0f 1f 84 00 00 	nopw   %cs:0x0(%rax,%rax,1)
  401f5f:	00 00 00 
  401f62:	66 2e 0f 1f 84 00 00 	nopw   %cs:0x0(%rax,%rax,1)
  401f69:	00 00 00 
  401f6c:	66 2e 0f 1f 84 00 00 	nopw   %cs:0x0(%rax,%rax,1)
  401f73:	00 00 00 
  401f76:	66 2e 0f 1f 84 00 00 	nopw   %cs:0x0(%rax,%rax,1)
  401f7d:	00 00 00 
  401f80:	66 2e 0f 1f 84 00 00 	nopw   %cs:0x0(%rax,%rax,1)
  401f87:	00 00 00 
  401f8a:	66 2e 0f 1f 84 00 00 	nopw   %cs:0x0(%rax,%rax,1)
  401f91:	00 00 00 
  401f94:	66 2e 0f 1f 84 00 00 	nopw   %cs:0x0(%rax,%rax,1)
  401f9b:	00 00 00 
  401f9e:	66 2e 0f 1f 84 00 00 	nopw   %cs:0x0(%rax,%rax,1)
  401fa5:	00 00 00 
  401fa8:	66 2e 0f 1f 84 00 00 	nopw   %cs:0x0(%rax,%rax,1)
  401faf:	00 00 00 
  401fb2:	66 2e 0f 1f 84 00 00 	nopw   %cs:0x0(%rax,%rax,1)
  401fb9:	00 00 00 
  401fbc:	66 2e 0f 1f 84 00 00 	nopw   %cs:0x0(%rax,%rax,1)
  401fc3:	00 00 00 
  401fc6:	66 2e 0f 1f 84 00 00 	nopw   %cs:0x0(%rax,%rax,1)
  401fcd:	00 00 00 
  401fd0:	66 2e 0f 1f 84 00 00 	nopw   %cs:0x0(%rax,%rax,1)
  401fd7:	00 00 00 
  401fda:	66 2e 0f 1f 84 00 00 	nopw   %cs:0x0(%rax,%rax,1)
  401fe1:	00 00 00 
  401fe4:	66 2e 0f 1f 84 00 00 	nopw   %cs:0x0(%rax,%rax,1)
  401feb:	00 00 00 
  401fee:	66 2e 0f 1f 84 00 00 	nopw   %cs:0x0(%rax,%rax,1)
  401ff5:	00 00 00 
  401ff8:	0f 1f 84 00 00 00 00 	nopl   0x0(%rax,%rax,1)
  401fff:	00 

0000000000402000 <spy_loop_abs>:
  402000:	55                   	push   %rbp
  402001:	48 89 e5             	mov    %rsp,%rbp
  402004:	48 89 f0             	mov    %rsi,%rax
  402007:	48 c7 c2 40 00 00 00 	mov    $0x40,%rdx
  40200e:	48 f7 e2             	mul    %rdx
  402011:	49 89 c2             	mov    %rax,%r10
  402014:	48 89 f8             	mov    %rdi,%rax
  402017:	48 31 ff             	xor    %rdi,%rdi
  40201a:	48 89 c1             	mov    %rax,%rcx
  40201d:	0f 31                	rdtsc  
  40201f:	48 89 c6             	mov    %rax,%rsi
  402022:	e9 d9 0f 00 00       	jmpq   403000 <L0>
  402027:	90                   	nop
  402028:	90                   	nop
  402029:	90                   	nop
  40202a:	90                   	nop
  40202b:	90                   	nop
  40202c:	90                   	nop
  40202d:	90                   	nop
  40202e:	90                   	nop
  40202f:	90                   	nop
  402030:	90                   	nop
  402031:	90                   	nop
  402032:	90                   	nop
  402033:	90                   	nop
  402034:	90                   	nop
  402035:	90                   	nop
  402036:	90                   	nop
  402037:	90                   	nop
  402038:	90                   	nop
  402039:	90                   	nop
  40203a:	90                   	nop
  40203b:	90                   	nop
  40203c:	90                   	nop
  40203d:	90                   	nop
  40203e:	90                   	nop
  40203f:	90                   	nop
  402040:	90                   	nop
  402041:	90                   	nop
  402042:	90                   	nop
  402043:	90                   	nop
  402044:	90                   	nop
  402045:	90                   	nop
  402046:	90                   	nop
  402047:	90                   	nop
  402048:	90                   	nop
  402049:	90                   	nop
  40204a:	90                   	nop
  40204b:	90                   	nop
  40204c:	90                   	nop
  40204d:	90                   	nop
  40204e:	90                   	nop
  40204f:	90                   	nop
  402050:	90                   	nop
  402051:	90                   	nop
  402052:	90                   	nop
  402053:	90                   	nop
  402054:	90                   	nop
  402055:	90                   	nop
  402056:	90                   	nop
  402057:	90                   	nop
  402058:	90                   	nop
  402059:	90                   	nop
  40205a:	90                   	nop
  40205b:	90                   	nop
  40205c:	90                   	nop
  40205d:	90                   	nop
  40205e:	90                   	nop
  40205f:	90                   	nop
  402060:	90                   	nop
  402061:	90                   	nop
  402062:	90                   	nop
  402063:	90                   	nop
  402064:	90                   	nop
  402065:	90                   	nop
  402066:	90                   	nop
  402067:	90                   	nop
  402068:	90                   	nop
  402069:	90                   	nop
  40206a:	90                   	nop
  40206b:	90                   	nop
  40206c:	90                   	nop
  40206d:	90                   	nop
  40206e:	90                   	nop
  40206f:	90                   	nop
  402070:	90                   	nop
  402071:	90                   	nop
  402072:	90                   	nop
  402073:	90                   	nop
  402074:	90                   	nop
  402075:	90                   	nop
  402076:	90                   	nop
  402077:	90                   	nop
  402078:	90                   	nop
  402079:	90                   	nop
  40207a:	90                   	nop
  40207b:	90                   	nop
  40207c:	90                   	nop
  40207d:	90                   	nop
  40207e:	90                   	nop
  40207f:	90                   	nop
  402080:	90                   	nop
  402081:	90                   	nop
  402082:	90                   	nop
  402083:	90                   	nop
  402084:	90                   	nop
  402085:	90                   	nop
  402086:	90                   	nop
  402087:	90                   	nop
  402088:	90                   	nop
  402089:	90                   	nop
  40208a:	90                   	nop
  40208b:	90                   	nop
  40208c:	90                   	nop
  40208d:	90                   	nop
  40208e:	90                   	nop
  40208f:	90                   	nop
  402090:	90                   	nop
  402091:	90                   	nop
  402092:	90                   	nop
  402093:	90                   	nop
  402094:	90                   	nop
  402095:	90                   	nop
  402096:	90                   	nop
  402097:	90                   	nop
  402098:	90                   	nop
  402099:	90                   	nop
  40209a:	90                   	nop
  40209b:	90                   	nop
  40209c:	90                   	nop
  40209d:	90                   	nop
  40209e:	90                   	nop
  40209f:	90                   	nop
  4020a0:	90                   	nop
  4020a1:	90                   	nop
  4020a2:	90                   	nop
  4020a3:	90                   	nop
  4020a4:	90                   	nop
  4020a5:	90                   	nop
  4020a6:	90                   	nop
  4020a7:	90                   	nop
  4020a8:	90                   	nop
  4020a9:	90                   	nop
  4020aa:	90                   	nop
  4020ab:	90                   	nop
  4020ac:	90                   	nop
  4020ad:	90                   	nop
  4020ae:	90                   	nop
  4020af:	90                   	nop
  4020b0:	90                   	nop
  4020b1:	90                   	nop
  4020b2:	90                   	nop
  4020b3:	90                   	nop
  4020b4:	90                   	nop
  4020b5:	90                   	nop
  4020b6:	90                   	nop
  4020b7:	90                   	nop
  4020b8:	90                   	nop
  4020b9:	90                   	nop
  4020ba:	90                   	nop
  4020bb:	90                   	nop
  4020bc:	90                   	nop
  4020bd:	90                   	nop
  4020be:	90                   	nop
  4020bf:	90                   	nop
  4020c0:	90                   	nop
  4020c1:	90                   	nop
  4020c2:	90                   	nop
  4020c3:	90                   	nop
  4020c4:	90                   	nop
  4020c5:	90                   	nop
  4020c6:	90                   	nop
  4020c7:	90                   	nop
  4020c8:	90                   	nop
  4020c9:	90                   	nop
  4020ca:	90                   	nop
  4020cb:	90                   	nop
  4020cc:	90                   	nop
  4020cd:	90                   	nop
  4020ce:	90                   	nop
  4020cf:	90                   	nop
  4020d0:	90                   	nop
  4020d1:	90                   	nop
  4020d2:	90                   	nop
  4020d3:	90                   	nop
  4020d4:	90                   	nop
  4020d5:	90                   	nop
  4020d6:	90                   	nop
  4020d7:	90                   	nop
  4020d8:	90                   	nop
  4020d9:	90                   	nop
  4020da:	90                   	nop
  4020db:	90                   	nop
  4020dc:	90                   	nop
  4020dd:	90                   	nop
  4020de:	90                   	nop
  4020df:	90                   	nop
  4020e0:	90                   	nop
  4020e1:	90                   	nop
  4020e2:	90                   	nop
  4020e3:	90                   	nop
  4020e4:	90                   	nop
  4020e5:	90                   	nop
  4020e6:	90                   	nop
  4020e7:	90                   	nop
  4020e8:	90                   	nop
  4020e9:	90                   	nop
  4020ea:	90                   	nop
  4020eb:	90                   	nop
  4020ec:	90                   	nop
  4020ed:	90                   	nop
  4020ee:	90                   	nop
  4020ef:	90                   	nop
  4020f0:	90                   	nop
  4020f1:	90                   	nop
  4020f2:	90                   	nop
  4020f3:	90                   	nop
  4020f4:	90                   	nop
  4020f5:	90                   	nop
  4020f6:	90                   	nop
  4020f7:	90                   	nop
  4020f8:	90                   	nop
  4020f9:	90                   	nop
  4020fa:	90                   	nop
  4020fb:	90                   	nop
  4020fc:	90                   	nop
  4020fd:	90                   	nop
  4020fe:	90                   	nop
  4020ff:	90                   	nop
  402100:	90                   	nop
  402101:	90                   	nop
  402102:	90                   	nop
  402103:	90                   	nop
  402104:	90                   	nop
  402105:	90                   	nop
  402106:	90                   	nop
  402107:	90                   	nop
  402108:	90                   	nop
  402109:	90                   	nop
  40210a:	90                   	nop
  40210b:	90                   	nop
  40210c:	90                   	nop
  40210d:	90                   	nop
  40210e:	90                   	nop
  40210f:	90                   	nop
  402110:	90                   	nop
  402111:	90                   	nop
  402112:	90                   	nop
  402113:	90                   	nop
  402114:	90                   	nop
  402115:	90                   	nop
  402116:	90                   	nop
  402117:	90                   	nop
  402118:	90                   	nop
  402119:	90                   	nop
  40211a:	90                   	nop
  40211b:	90                   	nop
  40211c:	90                   	nop
  40211d:	90                   	nop
  40211e:	90                   	nop
  40211f:	90                   	nop
  402120:	90                   	nop
  402121:	90                   	nop
  402122:	90                   	nop
  402123:	90                   	nop
  402124:	90                   	nop
  402125:	90                   	nop
  402126:	90                   	nop
  402127:	90                   	nop
  402128:	90                   	nop
  402129:	90                   	nop
  40212a:	90                   	nop
  40212b:	90                   	nop
  40212c:	90                   	nop
  40212d:	90                   	nop
  40212e:	90                   	nop
  40212f:	90                   	nop
  402130:	90                   	nop
  402131:	90                   	nop
  402132:	90                   	nop
  402133:	90                   	nop
  402134:	90                   	nop
  402135:	90                   	nop
  402136:	90                   	nop
  402137:	90                   	nop
  402138:	90                   	nop
  402139:	90                   	nop
  40213a:	90                   	nop
  40213b:	90                   	nop
  40213c:	90                   	nop
  40213d:	90                   	nop
  40213e:	90                   	nop
  40213f:	90                   	nop
  402140:	90                   	nop
  402141:	90                   	nop
  402142:	90                   	nop
  402143:	90                   	nop
  402144:	90                   	nop
  402145:	90                   	nop
  402146:	90                   	nop
  402147:	90                   	nop
  402148:	90                   	nop
  402149:	90                   	nop
  40214a:	90                   	nop
  40214b:	90                   	nop
  40214c:	90                   	nop
  40214d:	90                   	nop
  40214e:	90                   	nop
  40214f:	90                   	nop
  402150:	90                   	nop
  402151:	90                   	nop
  402152:	90                   	nop
  402153:	90                   	nop
  402154:	90                   	nop
  402155:	90                   	nop
  402156:	90                   	nop
  402157:	90                   	nop
  402158:	90                   	nop
  402159:	90                   	nop
  40215a:	90                   	nop
  40215b:	90                   	nop
  40215c:	90                   	nop
  40215d:	90                   	nop
  40215e:	90                   	nop
  40215f:	90                   	nop
  402160:	90                   	nop
  402161:	90                   	nop
  402162:	90                   	nop
  402163:	90                   	nop
  402164:	90                   	nop
  402165:	90                   	nop
  402166:	90                   	nop
  402167:	90                   	nop
  402168:	90                   	nop
  402169:	90                   	nop
  40216a:	90                   	nop
  40216b:	90                   	nop
  40216c:	90                   	nop
  40216d:	90                   	nop
  40216e:	90                   	nop
  40216f:	90                   	nop
  402170:	90                   	nop
  402171:	90                   	nop
  402172:	90                   	nop
  402173:	90                   	nop
  402174:	90                   	nop
  402175:	90                   	nop
  402176:	90                   	nop
  402177:	90                   	nop
  402178:	90                   	nop
  402179:	90                   	nop
  40217a:	90                   	nop
  40217b:	90                   	nop
  40217c:	90                   	nop
  40217d:	90                   	nop
  40217e:	90                   	nop
  40217f:	90                   	nop
  402180:	90                   	nop
  402181:	90                   	nop
  402182:	90                   	nop
  402183:	90                   	nop
  402184:	90                   	nop
  402185:	90                   	nop
  402186:	90                   	nop
  402187:	90                   	nop
  402188:	90                   	nop
  402189:	90                   	nop
  40218a:	90                   	nop
  40218b:	90                   	nop
  40218c:	90                   	nop
  40218d:	90                   	nop
  40218e:	90                   	nop
  40218f:	90                   	nop
  402190:	90                   	nop
  402191:	90                   	nop
  402192:	90                   	nop
  402193:	90                   	nop
  402194:	90                   	nop
  402195:	90                   	nop
  402196:	90                   	nop
  402197:	90                   	nop
  402198:	90                   	nop
  402199:	90                   	nop
  40219a:	90                   	nop
  40219b:	90                   	nop
  40219c:	90                   	nop
  40219d:	90                   	nop
  40219e:	90                   	nop
  40219f:	90                   	nop
  4021a0:	90                   	nop
  4021a1:	90                   	nop
  4021a2:	90                   	nop
  4021a3:	90                   	nop
  4021a4:	90                   	nop
  4021a5:	90                   	nop
  4021a6:	90                   	nop
  4021a7:	90                   	nop
  4021a8:	90                   	nop
  4021a9:	90                   	nop
  4021aa:	90                   	nop
  4021ab:	90                   	nop
  4021ac:	90                   	nop
  4021ad:	90                   	nop
  4021ae:	90                   	nop
  4021af:	90                   	nop
  4021b0:	90                   	nop
  4021b1:	90                   	nop
  4021b2:	90                   	nop
  4021b3:	90                   	nop
  4021b4:	90                   	nop
  4021b5:	90                   	nop
  4021b6:	90                   	nop
  4021b7:	90                   	nop
  4021b8:	90                   	nop
  4021b9:	90                   	nop
  4021ba:	90                   	nop
  4021bb:	90                   	nop
  4021bc:	90                   	nop
  4021bd:	90                   	nop
  4021be:	90                   	nop
  4021bf:	90                   	nop
  4021c0:	90                   	nop
  4021c1:	90                   	nop
  4021c2:	90                   	nop
  4021c3:	90                   	nop
  4021c4:	90                   	nop
  4021c5:	90                   	nop
  4021c6:	90                   	nop
  4021c7:	90                   	nop
  4021c8:	90                   	nop
  4021c9:	90                   	nop
  4021ca:	90                   	nop
  4021cb:	90                   	nop
  4021cc:	90                   	nop
  4021cd:	90                   	nop
  4021ce:	90                   	nop
  4021cf:	90                   	nop
  4021d0:	90                   	nop
  4021d1:	90                   	nop
  4021d2:	90                   	nop
  4021d3:	90                   	nop
  4021d4:	90                   	nop
  4021d5:	90                   	nop
  4021d6:	90                   	nop
  4021d7:	90                   	nop
  4021d8:	90                   	nop
  4021d9:	90                   	nop
  4021da:	90                   	nop
  4021db:	90                   	nop
  4021dc:	90                   	nop
  4021dd:	90                   	nop
  4021de:	90                   	nop
  4021df:	90                   	nop
  4021e0:	90                   	nop
  4021e1:	90                   	nop
  4021e2:	90                   	nop
  4021e3:	90                   	nop
  4021e4:	90                   	nop
  4021e5:	90                   	nop
  4021e6:	90                   	nop
  4021e7:	90                   	nop
  4021e8:	90                   	nop
  4021e9:	90                   	nop
  4021ea:	90                   	nop
  4021eb:	90                   	nop
  4021ec:	90                   	nop
  4021ed:	90                   	nop
  4021ee:	90                   	nop
  4021ef:	90                   	nop
  4021f0:	90                   	nop
  4021f1:	90                   	nop
  4021f2:	90                   	nop
  4021f3:	90                   	nop
  4021f4:	90                   	nop
  4021f5:	90                   	nop
  4021f6:	90                   	nop
  4021f7:	90                   	nop
  4021f8:	90                   	nop
  4021f9:	90                   	nop
  4021fa:	90                   	nop
  4021fb:	90                   	nop
  4021fc:	90                   	nop
  4021fd:	90                   	nop
  4021fe:	90                   	nop
  4021ff:	90                   	nop
  402200:	90                   	nop
  402201:	90                   	nop
  402202:	90                   	nop
  402203:	90                   	nop
  402204:	90                   	nop
  402205:	90                   	nop
  402206:	90                   	nop
  402207:	90                   	nop
  402208:	90                   	nop
  402209:	90                   	nop
  40220a:	90                   	nop
  40220b:	90                   	nop
  40220c:	90                   	nop
  40220d:	90                   	nop
  40220e:	90                   	nop
  40220f:	90                   	nop
  402210:	90                   	nop
  402211:	90                   	nop
  402212:	90                   	nop
  402213:	90                   	nop
  402214:	90                   	nop
  402215:	90                   	nop
  402216:	90                   	nop
  402217:	90                   	nop
  402218:	90                   	nop
  402219:	90                   	nop
  40221a:	90                   	nop
  40221b:	90                   	nop
  40221c:	90                   	nop
  40221d:	90                   	nop
  40221e:	90                   	nop
  40221f:	90                   	nop
  402220:	90                   	nop
  402221:	90                   	nop
  402222:	90                   	nop
  402223:	90                   	nop
  402224:	90                   	nop
  402225:	90                   	nop
  402226:	90                   	nop
  402227:	90                   	nop
  402228:	90                   	nop
  402229:	90                   	nop
  40222a:	90                   	nop
  40222b:	90                   	nop
  40222c:	90                   	nop
  40222d:	90                   	nop
  40222e:	90                   	nop
  40222f:	90                   	nop
  402230:	90                   	nop
  402231:	90                   	nop
  402232:	90                   	nop
  402233:	90                   	nop
  402234:	90                   	nop
  402235:	90                   	nop
  402236:	90                   	nop
  402237:	90                   	nop
  402238:	90                   	nop
  402239:	90                   	nop
  40223a:	90                   	nop
  40223b:	90                   	nop
  40223c:	90                   	nop
  40223d:	90                   	nop
  40223e:	90                   	nop
  40223f:	90                   	nop
  402240:	90                   	nop
  402241:	90                   	nop
  402242:	90                   	nop
  402243:	90                   	nop
  402244:	90                   	nop
  402245:	90                   	nop
  402246:	90                   	nop
  402247:	90                   	nop
  402248:	90                   	nop
  402249:	90                   	nop
  40224a:	90                   	nop
  40224b:	90                   	nop
  40224c:	90                   	nop
  40224d:	90                   	nop
  40224e:	90                   	nop
  40224f:	90                   	nop
  402250:	90                   	nop
  402251:	90                   	nop
  402252:	90                   	nop
  402253:	90                   	nop
  402254:	90                   	nop
  402255:	90                   	nop
  402256:	90                   	nop
  402257:	90                   	nop
  402258:	90                   	nop
  402259:	90                   	nop
  40225a:	90                   	nop
  40225b:	90                   	nop
  40225c:	90                   	nop
  40225d:	90                   	nop
  40225e:	90                   	nop
  40225f:	90                   	nop
  402260:	90                   	nop
  402261:	90                   	nop
  402262:	90                   	nop
  402263:	90                   	nop
  402264:	90                   	nop
  402265:	90                   	nop
  402266:	90                   	nop
  402267:	90                   	nop
  402268:	90                   	nop
  402269:	90                   	nop
  40226a:	90                   	nop
  40226b:	90                   	nop
  40226c:	90                   	nop
  40226d:	90                   	nop
  40226e:	90                   	nop
  40226f:	90                   	nop
  402270:	90                   	nop
  402271:	90                   	nop
  402272:	90                   	nop
  402273:	90                   	nop
  402274:	90                   	nop
  402275:	90                   	nop
  402276:	90                   	nop
  402277:	90                   	nop
  402278:	90                   	nop
  402279:	90                   	nop
  40227a:	90                   	nop
  40227b:	90                   	nop
  40227c:	90                   	nop
  40227d:	90                   	nop
  40227e:	90                   	nop
  40227f:	90                   	nop
  402280:	90                   	nop
  402281:	90                   	nop
  402282:	90                   	nop
  402283:	90                   	nop
  402284:	90                   	nop
  402285:	90                   	nop
  402286:	90                   	nop
  402287:	90                   	nop
  402288:	90                   	nop
  402289:	90                   	nop
  40228a:	90                   	nop
  40228b:	90                   	nop
  40228c:	90                   	nop
  40228d:	90                   	nop
  40228e:	90                   	nop
  40228f:	90                   	nop
  402290:	90                   	nop
  402291:	90                   	nop
  402292:	90                   	nop
  402293:	90                   	nop
  402294:	90                   	nop
  402295:	90                   	nop
  402296:	90                   	nop
  402297:	90                   	nop
  402298:	90                   	nop
  402299:	90                   	nop
  40229a:	90                   	nop
  40229b:	90                   	nop
  40229c:	90                   	nop
  40229d:	90                   	nop
  40229e:	90                   	nop
  40229f:	90                   	nop
  4022a0:	90                   	nop
  4022a1:	90                   	nop
  4022a2:	90                   	nop
  4022a3:	90                   	nop
  4022a4:	90                   	nop
  4022a5:	90                   	nop
  4022a6:	90                   	nop
  4022a7:	90                   	nop
  4022a8:	90                   	nop
  4022a9:	90                   	nop
  4022aa:	90                   	nop
  4022ab:	90                   	nop
  4022ac:	90                   	nop
  4022ad:	90                   	nop
  4022ae:	90                   	nop
  4022af:	90                   	nop
  4022b0:	90                   	nop
  4022b1:	90                   	nop
  4022b2:	90                   	nop
  4022b3:	90                   	nop
  4022b4:	90                   	nop
  4022b5:	90                   	nop
  4022b6:	90                   	nop
  4022b7:	90                   	nop
  4022b8:	90                   	nop
  4022b9:	90                   	nop
  4022ba:	90                   	nop
  4022bb:	90                   	nop
  4022bc:	90                   	nop
  4022bd:	90                   	nop
  4022be:	90                   	nop
  4022bf:	90                   	nop
  4022c0:	90                   	nop
  4022c1:	90                   	nop
  4022c2:	90                   	nop
  4022c3:	90                   	nop
  4022c4:	90                   	nop
  4022c5:	90                   	nop
  4022c6:	90                   	nop
  4022c7:	90                   	nop
  4022c8:	90                   	nop
  4022c9:	90                   	nop
  4022ca:	90                   	nop
  4022cb:	90                   	nop
  4022cc:	90                   	nop
  4022cd:	90                   	nop
  4022ce:	90                   	nop
  4022cf:	90                   	nop
  4022d0:	90                   	nop
  4022d1:	90                   	nop
  4022d2:	90                   	nop
  4022d3:	90                   	nop
  4022d4:	90                   	nop
  4022d5:	90                   	nop
  4022d6:	90                   	nop
  4022d7:	90                   	nop
  4022d8:	90                   	nop
  4022d9:	90                   	nop
  4022da:	90                   	nop
  4022db:	90                   	nop
  4022dc:	90                   	nop
  4022dd:	90                   	nop
  4022de:	90                   	nop
  4022df:	90                   	nop
  4022e0:	90                   	nop
  4022e1:	90                   	nop
  4022e2:	90                   	nop
  4022e3:	90                   	nop
  4022e4:	90                   	nop
  4022e5:	90                   	nop
  4022e6:	90                   	nop
  4022e7:	90                   	nop
  4022e8:	90                   	nop
  4022e9:	90                   	nop
  4022ea:	90                   	nop
  4022eb:	90                   	nop
  4022ec:	90                   	nop
  4022ed:	90                   	nop
  4022ee:	90                   	nop
  4022ef:	90                   	nop
  4022f0:	90                   	nop
  4022f1:	90                   	nop
  4022f2:	90                   	nop
  4022f3:	90                   	nop
  4022f4:	90                   	nop
  4022f5:	90                   	nop
  4022f6:	90                   	nop
  4022f7:	90                   	nop
  4022f8:	90                   	nop
  4022f9:	90                   	nop
  4022fa:	90                   	nop
  4022fb:	90                   	nop
  4022fc:	90                   	nop
  4022fd:	90                   	nop
  4022fe:	90                   	nop
  4022ff:	90                   	nop
  402300:	90                   	nop
  402301:	90                   	nop
  402302:	90                   	nop
  402303:	90                   	nop
  402304:	90                   	nop
  402305:	90                   	nop
  402306:	90                   	nop
  402307:	90                   	nop
  402308:	90                   	nop
  402309:	90                   	nop
  40230a:	90                   	nop
  40230b:	90                   	nop
  40230c:	90                   	nop
  40230d:	90                   	nop
  40230e:	90                   	nop
  40230f:	90                   	nop
  402310:	90                   	nop
  402311:	90                   	nop
  402312:	90                   	nop
  402313:	90                   	nop
  402314:	90                   	nop
  402315:	90                   	nop
  402316:	90                   	nop
  402317:	90                   	nop
  402318:	90                   	nop
  402319:	90                   	nop
  40231a:	90                   	nop
  40231b:	90                   	nop
  40231c:	90                   	nop
  40231d:	90                   	nop
  40231e:	90                   	nop
  40231f:	90                   	nop
  402320:	90                   	nop
  402321:	90                   	nop
  402322:	90                   	nop
  402323:	90                   	nop
  402324:	90                   	nop
  402325:	90                   	nop
  402326:	90                   	nop
  402327:	90                   	nop
  402328:	90                   	nop
  402329:	90                   	nop
  40232a:	90                   	nop
  40232b:	90                   	nop
  40232c:	90                   	nop
  40232d:	90                   	nop
  40232e:	90                   	nop
  40232f:	90                   	nop
  402330:	90                   	nop
  402331:	90                   	nop
  402332:	90                   	nop
  402333:	90                   	nop
  402334:	90                   	nop
  402335:	90                   	nop
  402336:	90                   	nop
  402337:	90                   	nop
  402338:	90                   	nop
  402339:	90                   	nop
  40233a:	90                   	nop
  40233b:	90                   	nop
  40233c:	90                   	nop
  40233d:	90                   	nop
  40233e:	90                   	nop
  40233f:	90                   	nop
  402340:	90                   	nop
  402341:	90                   	nop
  402342:	90                   	nop
  402343:	90                   	nop
  402344:	90                   	nop
  402345:	90                   	nop
  402346:	90                   	nop
  402347:	90                   	nop
  402348:	90                   	nop
  402349:	90                   	nop
  40234a:	90                   	nop
  40234b:	90                   	nop
  40234c:	90                   	nop
  40234d:	90                   	nop
  40234e:	90                   	nop
  40234f:	90                   	nop
  402350:	90                   	nop
  402351:	90                   	nop
  402352:	90                   	nop
  402353:	90                   	nop
  402354:	90                   	nop
  402355:	90                   	nop
  402356:	90                   	nop
  402357:	90                   	nop
  402358:	90                   	nop
  402359:	90                   	nop
  40235a:	90                   	nop
  40235b:	90                   	nop
  40235c:	90                   	nop
  40235d:	90                   	nop
  40235e:	90                   	nop
  40235f:	90                   	nop
  402360:	90                   	nop
  402361:	90                   	nop
  402362:	90                   	nop
  402363:	90                   	nop
  402364:	90                   	nop
  402365:	90                   	nop
  402366:	90                   	nop
  402367:	90                   	nop
  402368:	90                   	nop
  402369:	90                   	nop
  40236a:	90                   	nop
  40236b:	90                   	nop
  40236c:	90                   	nop
  40236d:	90                   	nop
  40236e:	90                   	nop
  40236f:	90                   	nop
  402370:	90                   	nop
  402371:	90                   	nop
  402372:	90                   	nop
  402373:	90                   	nop
  402374:	90                   	nop
  402375:	90                   	nop
  402376:	90                   	nop
  402377:	90                   	nop
  402378:	90                   	nop
  402379:	90                   	nop
  40237a:	90                   	nop
  40237b:	90                   	nop
  40237c:	90                   	nop
  40237d:	90                   	nop
  40237e:	90                   	nop
  40237f:	90                   	nop
  402380:	90                   	nop
  402381:	90                   	nop
  402382:	90                   	nop
  402383:	90                   	nop
  402384:	90                   	nop
  402385:	90                   	nop
  402386:	90                   	nop
  402387:	90                   	nop
  402388:	90                   	nop
  402389:	90                   	nop
  40238a:	90                   	nop
  40238b:	90                   	nop
  40238c:	90                   	nop
  40238d:	90                   	nop
  40238e:	90                   	nop
  40238f:	90                   	nop
  402390:	90                   	nop
  402391:	90                   	nop
  402392:	90                   	nop
  402393:	90                   	nop
  402394:	90                   	nop
  402395:	90                   	nop
  402396:	90                   	nop
  402397:	90                   	nop
  402398:	90                   	nop
  402399:	90                   	nop
  40239a:	90                   	nop
  40239b:	90                   	nop
  40239c:	90                   	nop
  40239d:	90                   	nop
  40239e:	90                   	nop
  40239f:	90                   	nop
  4023a0:	90                   	nop
  4023a1:	90                   	nop
  4023a2:	90                   	nop
  4023a3:	90                   	nop
  4023a4:	90                   	nop
  4023a5:	90                   	nop
  4023a6:	90                   	nop
  4023a7:	90                   	nop
  4023a8:	90                   	nop
  4023a9:	90                   	nop
  4023aa:	90                   	nop
  4023ab:	90                   	nop
  4023ac:	90                   	nop
  4023ad:	90                   	nop
  4023ae:	90                   	nop
  4023af:	90                   	nop
  4023b0:	90                   	nop
  4023b1:	90                   	nop
  4023b2:	90                   	nop
  4023b3:	90                   	nop
  4023b4:	90                   	nop
  4023b5:	90                   	nop
  4023b6:	90                   	nop
  4023b7:	90                   	nop
  4023b8:	90                   	nop
  4023b9:	90                   	nop
  4023ba:	90                   	nop
  4023bb:	90                   	nop
  4023bc:	90                   	nop
  4023bd:	90                   	nop
  4023be:	90                   	nop
  4023bf:	90                   	nop
  4023c0:	90                   	nop
  4023c1:	90                   	nop
  4023c2:	90                   	nop
  4023c3:	90                   	nop
  4023c4:	90                   	nop
  4023c5:	90                   	nop
  4023c6:	90                   	nop
  4023c7:	90                   	nop
  4023c8:	90                   	nop
  4023c9:	90                   	nop
  4023ca:	90                   	nop
  4023cb:	90                   	nop
  4023cc:	90                   	nop
  4023cd:	90                   	nop
  4023ce:	90                   	nop
  4023cf:	90                   	nop
  4023d0:	90                   	nop
  4023d1:	90                   	nop
  4023d2:	90                   	nop
  4023d3:	90                   	nop
  4023d4:	90                   	nop
  4023d5:	90                   	nop
  4023d6:	90                   	nop
  4023d7:	90                   	nop
  4023d8:	90                   	nop
  4023d9:	90                   	nop
  4023da:	90                   	nop
  4023db:	90                   	nop
  4023dc:	90                   	nop
  4023dd:	90                   	nop
  4023de:	90                   	nop
  4023df:	90                   	nop
  4023e0:	90                   	nop
  4023e1:	90                   	nop
  4023e2:	90                   	nop
  4023e3:	90                   	nop
  4023e4:	90                   	nop
  4023e5:	90                   	nop
  4023e6:	90                   	nop
  4023e7:	90                   	nop
  4023e8:	90                   	nop
  4023e9:	90                   	nop
  4023ea:	90                   	nop
  4023eb:	90                   	nop
  4023ec:	90                   	nop
  4023ed:	90                   	nop
  4023ee:	90                   	nop
  4023ef:	90                   	nop
  4023f0:	90                   	nop
  4023f1:	90                   	nop
  4023f2:	90                   	nop
  4023f3:	90                   	nop
  4023f4:	90                   	nop
  4023f5:	90                   	nop
  4023f6:	90                   	nop
  4023f7:	90                   	nop
  4023f8:	90                   	nop
  4023f9:	90                   	nop
  4023fa:	90                   	nop
  4023fb:	90                   	nop
  4023fc:	90                   	nop
  4023fd:	90                   	nop
  4023fe:	90                   	nop
  4023ff:	90                   	nop
  402400:	90                   	nop
  402401:	90                   	nop
  402402:	90                   	nop
  402403:	90                   	nop
  402404:	90                   	nop
  402405:	90                   	nop
  402406:	90                   	nop
  402407:	90                   	nop
  402408:	90                   	nop
  402409:	90                   	nop
  40240a:	90                   	nop
  40240b:	90                   	nop
  40240c:	90                   	nop
  40240d:	90                   	nop
  40240e:	90                   	nop
  40240f:	90                   	nop
  402410:	90                   	nop
  402411:	90                   	nop
  402412:	90                   	nop
  402413:	90                   	nop
  402414:	90                   	nop
  402415:	90                   	nop
  402416:	90                   	nop
  402417:	90                   	nop
  402418:	90                   	nop
  402419:	90                   	nop
  40241a:	90                   	nop
  40241b:	90                   	nop
  40241c:	90                   	nop
  40241d:	90                   	nop
  40241e:	90                   	nop
  40241f:	90                   	nop
  402420:	90                   	nop
  402421:	90                   	nop
  402422:	90                   	nop
  402423:	90                   	nop
  402424:	90                   	nop
  402425:	90                   	nop
  402426:	90                   	nop
  402427:	90                   	nop
  402428:	90                   	nop
  402429:	90                   	nop
  40242a:	90                   	nop
  40242b:	90                   	nop
  40242c:	90                   	nop
  40242d:	90                   	nop
  40242e:	90                   	nop
  40242f:	90                   	nop
  402430:	90                   	nop
  402431:	90                   	nop
  402432:	90                   	nop
  402433:	90                   	nop
  402434:	90                   	nop
  402435:	90                   	nop
  402436:	90                   	nop
  402437:	90                   	nop
  402438:	90                   	nop
  402439:	90                   	nop
  40243a:	90                   	nop
  40243b:	90                   	nop
  40243c:	90                   	nop
  40243d:	90                   	nop
  40243e:	90                   	nop
  40243f:	90                   	nop
  402440:	90                   	nop
  402441:	90                   	nop
  402442:	90                   	nop
  402443:	90                   	nop
  402444:	90                   	nop
  402445:	90                   	nop
  402446:	90                   	nop
  402447:	90                   	nop
  402448:	90                   	nop
  402449:	90                   	nop
  40244a:	90                   	nop
  40244b:	90                   	nop
  40244c:	90                   	nop
  40244d:	90                   	nop
  40244e:	90                   	nop
  40244f:	90                   	nop
  402450:	90                   	nop
  402451:	90                   	nop
  402452:	90                   	nop
  402453:	90                   	nop
  402454:	90                   	nop
  402455:	90                   	nop
  402456:	90                   	nop
  402457:	90                   	nop
  402458:	90                   	nop
  402459:	90                   	nop
  40245a:	90                   	nop
  40245b:	90                   	nop
  40245c:	90                   	nop
  40245d:	90                   	nop
  40245e:	90                   	nop
  40245f:	90                   	nop
  402460:	90                   	nop
  402461:	90                   	nop
  402462:	90                   	nop
  402463:	90                   	nop
  402464:	90                   	nop
  402465:	90                   	nop
  402466:	90                   	nop
  402467:	90                   	nop
  402468:	90                   	nop
  402469:	90                   	nop
  40246a:	90                   	nop
  40246b:	90                   	nop
  40246c:	90                   	nop
  40246d:	90                   	nop
  40246e:	90                   	nop
  40246f:	90                   	nop
  402470:	90                   	nop
  402471:	90                   	nop
  402472:	90                   	nop
  402473:	90                   	nop
  402474:	90                   	nop
  402475:	90                   	nop
  402476:	90                   	nop
  402477:	90                   	nop
  402478:	90                   	nop
  402479:	90                   	nop
  40247a:	90                   	nop
  40247b:	90                   	nop
  40247c:	90                   	nop
  40247d:	90                   	nop
  40247e:	90                   	nop
  40247f:	90                   	nop
  402480:	90                   	nop
  402481:	90                   	nop
  402482:	90                   	nop
  402483:	90                   	nop
  402484:	90                   	nop
  402485:	90                   	nop
  402486:	90                   	nop
  402487:	90                   	nop
  402488:	90                   	nop
  402489:	90                   	nop
  40248a:	90                   	nop
  40248b:	90                   	nop
  40248c:	90                   	nop
  40248d:	90                   	nop
  40248e:	90                   	nop
  40248f:	90                   	nop
  402490:	90                   	nop
  402491:	90                   	nop
  402492:	90                   	nop
  402493:	90                   	nop
  402494:	90                   	nop
  402495:	90                   	nop
  402496:	90                   	nop
  402497:	90                   	nop
  402498:	90                   	nop
  402499:	90                   	nop
  40249a:	90                   	nop
  40249b:	90                   	nop
  40249c:	90                   	nop
  40249d:	90                   	nop
  40249e:	90                   	nop
  40249f:	90                   	nop
  4024a0:	90                   	nop
  4024a1:	90                   	nop
  4024a2:	90                   	nop
  4024a3:	90                   	nop
  4024a4:	90                   	nop
  4024a5:	90                   	nop
  4024a6:	90                   	nop
  4024a7:	90                   	nop
  4024a8:	90                   	nop
  4024a9:	90                   	nop
  4024aa:	90                   	nop
  4024ab:	90                   	nop
  4024ac:	90                   	nop
  4024ad:	90                   	nop
  4024ae:	90                   	nop
  4024af:	90                   	nop
  4024b0:	90                   	nop
  4024b1:	90                   	nop
  4024b2:	90                   	nop
  4024b3:	90                   	nop
  4024b4:	90                   	nop
  4024b5:	90                   	nop
  4024b6:	90                   	nop
  4024b7:	90                   	nop
  4024b8:	90                   	nop
  4024b9:	90                   	nop
  4024ba:	90                   	nop
  4024bb:	90                   	nop
  4024bc:	90                   	nop
  4024bd:	90                   	nop
  4024be:	90                   	nop
  4024bf:	90                   	nop
  4024c0:	90                   	nop
  4024c1:	90                   	nop
  4024c2:	90                   	nop
  4024c3:	90                   	nop
  4024c4:	90                   	nop
  4024c5:	90                   	nop
  4024c6:	90                   	nop
  4024c7:	90                   	nop
  4024c8:	90                   	nop
  4024c9:	90                   	nop
  4024ca:	90                   	nop
  4024cb:	90                   	nop
  4024cc:	90                   	nop
  4024cd:	90                   	nop
  4024ce:	90                   	nop
  4024cf:	90                   	nop
  4024d0:	90                   	nop
  4024d1:	90                   	nop
  4024d2:	90                   	nop
  4024d3:	90                   	nop
  4024d4:	90                   	nop
  4024d5:	90                   	nop
  4024d6:	90                   	nop
  4024d7:	90                   	nop
  4024d8:	90                   	nop
  4024d9:	90                   	nop
  4024da:	90                   	nop
  4024db:	90                   	nop
  4024dc:	90                   	nop
  4024dd:	90                   	nop
  4024de:	90                   	nop
  4024df:	90                   	nop
  4024e0:	90                   	nop
  4024e1:	90                   	nop
  4024e2:	90                   	nop
  4024e3:	90                   	nop
  4024e4:	90                   	nop
  4024e5:	90                   	nop
  4024e6:	90                   	nop
  4024e7:	90                   	nop
  4024e8:	90                   	nop
  4024e9:	90                   	nop
  4024ea:	90                   	nop
  4024eb:	90                   	nop
  4024ec:	90                   	nop
  4024ed:	90                   	nop
  4024ee:	90                   	nop
  4024ef:	90                   	nop
  4024f0:	90                   	nop
  4024f1:	90                   	nop
  4024f2:	90                   	nop
  4024f3:	90                   	nop
  4024f4:	90                   	nop
  4024f5:	90                   	nop
  4024f6:	90                   	nop
  4024f7:	90                   	nop
  4024f8:	90                   	nop
  4024f9:	90                   	nop
  4024fa:	90                   	nop
  4024fb:	90                   	nop
  4024fc:	90                   	nop
  4024fd:	90                   	nop
  4024fe:	90                   	nop
  4024ff:	90                   	nop
  402500:	90                   	nop
  402501:	90                   	nop
  402502:	90                   	nop
  402503:	90                   	nop
  402504:	90                   	nop
  402505:	90                   	nop
  402506:	90                   	nop
  402507:	90                   	nop
  402508:	90                   	nop
  402509:	90                   	nop
  40250a:	90                   	nop
  40250b:	90                   	nop
  40250c:	90                   	nop
  40250d:	90                   	nop
  40250e:	90                   	nop
  40250f:	90                   	nop
  402510:	90                   	nop
  402511:	90                   	nop
  402512:	90                   	nop
  402513:	90                   	nop
  402514:	90                   	nop
  402515:	90                   	nop
  402516:	90                   	nop
  402517:	90                   	nop
  402518:	90                   	nop
  402519:	90                   	nop
  40251a:	90                   	nop
  40251b:	90                   	nop
  40251c:	90                   	nop
  40251d:	90                   	nop
  40251e:	90                   	nop
  40251f:	90                   	nop
  402520:	90                   	nop
  402521:	90                   	nop
  402522:	90                   	nop
  402523:	90                   	nop
  402524:	90                   	nop
  402525:	90                   	nop
  402526:	90                   	nop
  402527:	90                   	nop
  402528:	90                   	nop
  402529:	90                   	nop
  40252a:	90                   	nop
  40252b:	90                   	nop
  40252c:	90                   	nop
  40252d:	90                   	nop
  40252e:	90                   	nop
  40252f:	90                   	nop
  402530:	90                   	nop
  402531:	90                   	nop
  402532:	90                   	nop
  402533:	90                   	nop
  402534:	90                   	nop
  402535:	90                   	nop
  402536:	90                   	nop
  402537:	90                   	nop
  402538:	90                   	nop
  402539:	90                   	nop
  40253a:	90                   	nop
  40253b:	90                   	nop
  40253c:	90                   	nop
  40253d:	90                   	nop
  40253e:	90                   	nop
  40253f:	90                   	nop
  402540:	90                   	nop
  402541:	90                   	nop
  402542:	90                   	nop
  402543:	90                   	nop
  402544:	90                   	nop
  402545:	90                   	nop
  402546:	90                   	nop
  402547:	90                   	nop
  402548:	90                   	nop
  402549:	90                   	nop
  40254a:	90                   	nop
  40254b:	90                   	nop
  40254c:	90                   	nop
  40254d:	90                   	nop
  40254e:	90                   	nop
  40254f:	90                   	nop
  402550:	90                   	nop
  402551:	90                   	nop
  402552:	90                   	nop
  402553:	90                   	nop
  402554:	90                   	nop
  402555:	90                   	nop
  402556:	90                   	nop
  402557:	90                   	nop
  402558:	90                   	nop
  402559:	90                   	nop
  40255a:	90                   	nop
  40255b:	90                   	nop
  40255c:	90                   	nop
  40255d:	90                   	nop
  40255e:	90                   	nop
  40255f:	90                   	nop
  402560:	90                   	nop
  402561:	90                   	nop
  402562:	90                   	nop
  402563:	90                   	nop
  402564:	90                   	nop
  402565:	90                   	nop
  402566:	90                   	nop
  402567:	90                   	nop
  402568:	90                   	nop
  402569:	90                   	nop
  40256a:	90                   	nop
  40256b:	90                   	nop
  40256c:	90                   	nop
  40256d:	90                   	nop
  40256e:	90                   	nop
  40256f:	90                   	nop
  402570:	90                   	nop
  402571:	90                   	nop
  402572:	90                   	nop
  402573:	90                   	nop
  402574:	90                   	nop
  402575:	90                   	nop
  402576:	90                   	nop
  402577:	90                   	nop
  402578:	90                   	nop
  402579:	90                   	nop
  40257a:	90                   	nop
  40257b:	90                   	nop
  40257c:	90                   	nop
  40257d:	90                   	nop
  40257e:	90                   	nop
  40257f:	90                   	nop
  402580:	90                   	nop
  402581:	90                   	nop
  402582:	90                   	nop
  402583:	90                   	nop
  402584:	90                   	nop
  402585:	90                   	nop
  402586:	90                   	nop
  402587:	90                   	nop
  402588:	90                   	nop
  402589:	90                   	nop
  40258a:	90                   	nop
  40258b:	90                   	nop
  40258c:	90                   	nop
  40258d:	90                   	nop
  40258e:	90                   	nop
  40258f:	90                   	nop
  402590:	90                   	nop
  402591:	90                   	nop
  402592:	90                   	nop
  402593:	90                   	nop
  402594:	90                   	nop
  402595:	90                   	nop
  402596:	90                   	nop
  402597:	90                   	nop
  402598:	90                   	nop
  402599:	90                   	nop
  40259a:	90                   	nop
  40259b:	90                   	nop
  40259c:	90                   	nop
  40259d:	90                   	nop
  40259e:	90                   	nop
  40259f:	90                   	nop
  4025a0:	90                   	nop
  4025a1:	90                   	nop
  4025a2:	90                   	nop
  4025a3:	90                   	nop
  4025a4:	90                   	nop
  4025a5:	90                   	nop
  4025a6:	90                   	nop
  4025a7:	90                   	nop
  4025a8:	90                   	nop
  4025a9:	90                   	nop
  4025aa:	90                   	nop
  4025ab:	90                   	nop
  4025ac:	90                   	nop
  4025ad:	90                   	nop
  4025ae:	90                   	nop
  4025af:	90                   	nop
  4025b0:	90                   	nop
  4025b1:	90                   	nop
  4025b2:	90                   	nop
  4025b3:	90                   	nop
  4025b4:	90                   	nop
  4025b5:	90                   	nop
  4025b6:	90                   	nop
  4025b7:	90                   	nop
  4025b8:	90                   	nop
  4025b9:	90                   	nop
  4025ba:	90                   	nop
  4025bb:	90                   	nop
  4025bc:	90                   	nop
  4025bd:	90                   	nop
  4025be:	90                   	nop
  4025bf:	90                   	nop
  4025c0:	90                   	nop
  4025c1:	90                   	nop
  4025c2:	90                   	nop
  4025c3:	90                   	nop
  4025c4:	90                   	nop
  4025c5:	90                   	nop
  4025c6:	90                   	nop
  4025c7:	90                   	nop
  4025c8:	90                   	nop
  4025c9:	90                   	nop
  4025ca:	90                   	nop
  4025cb:	90                   	nop
  4025cc:	90                   	nop
  4025cd:	90                   	nop
  4025ce:	90                   	nop
  4025cf:	90                   	nop
  4025d0:	90                   	nop
  4025d1:	90                   	nop
  4025d2:	90                   	nop
  4025d3:	90                   	nop
  4025d4:	90                   	nop
  4025d5:	90                   	nop
  4025d6:	90                   	nop
  4025d7:	90                   	nop
  4025d8:	90                   	nop
  4025d9:	90                   	nop
  4025da:	90                   	nop
  4025db:	90                   	nop
  4025dc:	90                   	nop
  4025dd:	90                   	nop
  4025de:	90                   	nop
  4025df:	90                   	nop
  4025e0:	90                   	nop
  4025e1:	90                   	nop
  4025e2:	90                   	nop
  4025e3:	90                   	nop
  4025e4:	90                   	nop
  4025e5:	90                   	nop
  4025e6:	90                   	nop
  4025e7:	90                   	nop
  4025e8:	90                   	nop
  4025e9:	90                   	nop
  4025ea:	90                   	nop
  4025eb:	90                   	nop
  4025ec:	90                   	nop
  4025ed:	90                   	nop
  4025ee:	90                   	nop
  4025ef:	90                   	nop
  4025f0:	90                   	nop
  4025f1:	90                   	nop
  4025f2:	90                   	nop
  4025f3:	90                   	nop
  4025f4:	90                   	nop
  4025f5:	90                   	nop
  4025f6:	90                   	nop
  4025f7:	90                   	nop
  4025f8:	90                   	nop
  4025f9:	90                   	nop
  4025fa:	90                   	nop
  4025fb:	90                   	nop
  4025fc:	90                   	nop
  4025fd:	90                   	nop
  4025fe:	90                   	nop
  4025ff:	90                   	nop
  402600:	90                   	nop
  402601:	90                   	nop
  402602:	90                   	nop
  402603:	90                   	nop
  402604:	90                   	nop
  402605:	90                   	nop
  402606:	90                   	nop
  402607:	90                   	nop
  402608:	90                   	nop
  402609:	90                   	nop
  40260a:	90                   	nop
  40260b:	90                   	nop
  40260c:	90                   	nop
  40260d:	90                   	nop
  40260e:	90                   	nop
  40260f:	90                   	nop
  402610:	90                   	nop
  402611:	90                   	nop
  402612:	90                   	nop
  402613:	90                   	nop
  402614:	90                   	nop
  402615:	90                   	nop
  402616:	90                   	nop
  402617:	90                   	nop
  402618:	90                   	nop
  402619:	90                   	nop
  40261a:	90                   	nop
  40261b:	90                   	nop
  40261c:	90                   	nop
  40261d:	90                   	nop
  40261e:	90                   	nop
  40261f:	90                   	nop
  402620:	90                   	nop
  402621:	90                   	nop
  402622:	90                   	nop
  402623:	90                   	nop
  402624:	90                   	nop
  402625:	90                   	nop
  402626:	90                   	nop
  402627:	90                   	nop
  402628:	90                   	nop
  402629:	90                   	nop
  40262a:	90                   	nop
  40262b:	90                   	nop
  40262c:	90                   	nop
  40262d:	90                   	nop
  40262e:	90                   	nop
  40262f:	90                   	nop
  402630:	90                   	nop
  402631:	90                   	nop
  402632:	90                   	nop
  402633:	90                   	nop
  402634:	90                   	nop
  402635:	90                   	nop
  402636:	90                   	nop
  402637:	90                   	nop
  402638:	90                   	nop
  402639:	90                   	nop
  40263a:	90                   	nop
  40263b:	90                   	nop
  40263c:	90                   	nop
  40263d:	90                   	nop
  40263e:	90                   	nop
  40263f:	90                   	nop
  402640:	90                   	nop
  402641:	90                   	nop
  402642:	90                   	nop
  402643:	90                   	nop
  402644:	90                   	nop
  402645:	90                   	nop
  402646:	90                   	nop
  402647:	90                   	nop
  402648:	90                   	nop
  402649:	90                   	nop
  40264a:	90                   	nop
  40264b:	90                   	nop
  40264c:	90                   	nop
  40264d:	90                   	nop
  40264e:	90                   	nop
  40264f:	90                   	nop
  402650:	90                   	nop
  402651:	90                   	nop
  402652:	90                   	nop
  402653:	90                   	nop
  402654:	90                   	nop
  402655:	90                   	nop
  402656:	90                   	nop
  402657:	90                   	nop
  402658:	90                   	nop
  402659:	90                   	nop
  40265a:	90                   	nop
  40265b:	90                   	nop
  40265c:	90                   	nop
  40265d:	90                   	nop
  40265e:	90                   	nop
  40265f:	90                   	nop
  402660:	90                   	nop
  402661:	90                   	nop
  402662:	90                   	nop
  402663:	90                   	nop
  402664:	90                   	nop
  402665:	90                   	nop
  402666:	90                   	nop
  402667:	90                   	nop
  402668:	90                   	nop
  402669:	90                   	nop
  40266a:	90                   	nop
  40266b:	90                   	nop
  40266c:	90                   	nop
  40266d:	90                   	nop
  40266e:	90                   	nop
  40266f:	90                   	nop
  402670:	90                   	nop
  402671:	90                   	nop
  402672:	90                   	nop
  402673:	90                   	nop
  402674:	90                   	nop
  402675:	90                   	nop
  402676:	90                   	nop
  402677:	90                   	nop
  402678:	90                   	nop
  402679:	90                   	nop
  40267a:	90                   	nop
  40267b:	90                   	nop
  40267c:	90                   	nop
  40267d:	90                   	nop
  40267e:	90                   	nop
  40267f:	90                   	nop
  402680:	90                   	nop
  402681:	90                   	nop
  402682:	90                   	nop
  402683:	90                   	nop
  402684:	90                   	nop
  402685:	90                   	nop
  402686:	90                   	nop
  402687:	90                   	nop
  402688:	90                   	nop
  402689:	90                   	nop
  40268a:	90                   	nop
  40268b:	90                   	nop
  40268c:	90                   	nop
  40268d:	90                   	nop
  40268e:	90                   	nop
  40268f:	90                   	nop
  402690:	90                   	nop
  402691:	90                   	nop
  402692:	90                   	nop
  402693:	90                   	nop
  402694:	90                   	nop
  402695:	90                   	nop
  402696:	90                   	nop
  402697:	90                   	nop
  402698:	90                   	nop
  402699:	90                   	nop
  40269a:	90                   	nop
  40269b:	90                   	nop
  40269c:	90                   	nop
  40269d:	90                   	nop
  40269e:	90                   	nop
  40269f:	90                   	nop
  4026a0:	90                   	nop
  4026a1:	90                   	nop
  4026a2:	90                   	nop
  4026a3:	90                   	nop
  4026a4:	90                   	nop
  4026a5:	90                   	nop
  4026a6:	90                   	nop
  4026a7:	90                   	nop
  4026a8:	90                   	nop
  4026a9:	90                   	nop
  4026aa:	90                   	nop
  4026ab:	90                   	nop
  4026ac:	90                   	nop
  4026ad:	90                   	nop
  4026ae:	90                   	nop
  4026af:	90                   	nop
  4026b0:	90                   	nop
  4026b1:	90                   	nop
  4026b2:	90                   	nop
  4026b3:	90                   	nop
  4026b4:	90                   	nop
  4026b5:	90                   	nop
  4026b6:	90                   	nop
  4026b7:	90                   	nop
  4026b8:	90                   	nop
  4026b9:	90                   	nop
  4026ba:	90                   	nop
  4026bb:	90                   	nop
  4026bc:	90                   	nop
  4026bd:	90                   	nop
  4026be:	90                   	nop
  4026bf:	90                   	nop
  4026c0:	90                   	nop
  4026c1:	90                   	nop
  4026c2:	90                   	nop
  4026c3:	90                   	nop
  4026c4:	90                   	nop
  4026c5:	90                   	nop
  4026c6:	90                   	nop
  4026c7:	90                   	nop
  4026c8:	90                   	nop
  4026c9:	90                   	nop
  4026ca:	90                   	nop
  4026cb:	90                   	nop
  4026cc:	90                   	nop
  4026cd:	90                   	nop
  4026ce:	90                   	nop
  4026cf:	90                   	nop
  4026d0:	90                   	nop
  4026d1:	90                   	nop
  4026d2:	90                   	nop
  4026d3:	90                   	nop
  4026d4:	90                   	nop
  4026d5:	90                   	nop
  4026d6:	90                   	nop
  4026d7:	90                   	nop
  4026d8:	90                   	nop
  4026d9:	90                   	nop
  4026da:	90                   	nop
  4026db:	90                   	nop
  4026dc:	90                   	nop
  4026dd:	90                   	nop
  4026de:	90                   	nop
  4026df:	90                   	nop
  4026e0:	90                   	nop
  4026e1:	90                   	nop
  4026e2:	90                   	nop
  4026e3:	90                   	nop
  4026e4:	90                   	nop
  4026e5:	90                   	nop
  4026e6:	90                   	nop
  4026e7:	90                   	nop
  4026e8:	90                   	nop
  4026e9:	90                   	nop
  4026ea:	90                   	nop
  4026eb:	90                   	nop
  4026ec:	90                   	nop
  4026ed:	90                   	nop
  4026ee:	90                   	nop
  4026ef:	90                   	nop
  4026f0:	90                   	nop
  4026f1:	90                   	nop
  4026f2:	90                   	nop
  4026f3:	90                   	nop
  4026f4:	90                   	nop
  4026f5:	90                   	nop
  4026f6:	90                   	nop
  4026f7:	90                   	nop
  4026f8:	90                   	nop
  4026f9:	90                   	nop
  4026fa:	90                   	nop
  4026fb:	90                   	nop
  4026fc:	90                   	nop
  4026fd:	90                   	nop
  4026fe:	90                   	nop
  4026ff:	90                   	nop
  402700:	90                   	nop
  402701:	90                   	nop
  402702:	90                   	nop
  402703:	90                   	nop
  402704:	90                   	nop
  402705:	90                   	nop
  402706:	90                   	nop
  402707:	90                   	nop
  402708:	90                   	nop
  402709:	90                   	nop
  40270a:	90                   	nop
  40270b:	90                   	nop
  40270c:	90                   	nop
  40270d:	90                   	nop
  40270e:	90                   	nop
  40270f:	90                   	nop
  402710:	90                   	nop
  402711:	90                   	nop
  402712:	90                   	nop
  402713:	90                   	nop
  402714:	90                   	nop
  402715:	90                   	nop
  402716:	90                   	nop
  402717:	90                   	nop
  402718:	90                   	nop
  402719:	90                   	nop
  40271a:	90                   	nop
  40271b:	90                   	nop
  40271c:	90                   	nop
  40271d:	90                   	nop
  40271e:	90                   	nop
  40271f:	90                   	nop
  402720:	90                   	nop
  402721:	90                   	nop
  402722:	90                   	nop
  402723:	90                   	nop
  402724:	90                   	nop
  402725:	90                   	nop
  402726:	90                   	nop
  402727:	90                   	nop
  402728:	90                   	nop
  402729:	90                   	nop
  40272a:	90                   	nop
  40272b:	90                   	nop
  40272c:	90                   	nop
  40272d:	90                   	nop
  40272e:	90                   	nop
  40272f:	90                   	nop
  402730:	90                   	nop
  402731:	90                   	nop
  402732:	90                   	nop
  402733:	90                   	nop
  402734:	90                   	nop
  402735:	90                   	nop
  402736:	90                   	nop
  402737:	90                   	nop
  402738:	90                   	nop
  402739:	90                   	nop
  40273a:	90                   	nop
  40273b:	90                   	nop
  40273c:	90                   	nop
  40273d:	90                   	nop
  40273e:	90                   	nop
  40273f:	90                   	nop
  402740:	90                   	nop
  402741:	90                   	nop
  402742:	90                   	nop
  402743:	90                   	nop
  402744:	90                   	nop
  402745:	90                   	nop
  402746:	90                   	nop
  402747:	90                   	nop
  402748:	90                   	nop
  402749:	90                   	nop
  40274a:	90                   	nop
  40274b:	90                   	nop
  40274c:	90                   	nop
  40274d:	90                   	nop
  40274e:	90                   	nop
  40274f:	90                   	nop
  402750:	90                   	nop
  402751:	90                   	nop
  402752:	90                   	nop
  402753:	90                   	nop
  402754:	90                   	nop
  402755:	90                   	nop
  402756:	90                   	nop
  402757:	90                   	nop
  402758:	90                   	nop
  402759:	90                   	nop
  40275a:	90                   	nop
  40275b:	90                   	nop
  40275c:	90                   	nop
  40275d:	90                   	nop
  40275e:	90                   	nop
  40275f:	90                   	nop
  402760:	90                   	nop
  402761:	90                   	nop
  402762:	90                   	nop
  402763:	90                   	nop
  402764:	90                   	nop
  402765:	90                   	nop
  402766:	90                   	nop
  402767:	90                   	nop
  402768:	90                   	nop
  402769:	90                   	nop
  40276a:	90                   	nop
  40276b:	90                   	nop
  40276c:	90                   	nop
  40276d:	90                   	nop
  40276e:	90                   	nop
  40276f:	90                   	nop
  402770:	90                   	nop
  402771:	90                   	nop
  402772:	90                   	nop
  402773:	90                   	nop
  402774:	90                   	nop
  402775:	90                   	nop
  402776:	90                   	nop
  402777:	90                   	nop
  402778:	90                   	nop
  402779:	90                   	nop
  40277a:	90                   	nop
  40277b:	90                   	nop
  40277c:	90                   	nop
  40277d:	90                   	nop
  40277e:	90                   	nop
  40277f:	90                   	nop
  402780:	90                   	nop
  402781:	90                   	nop
  402782:	90                   	nop
  402783:	90                   	nop
  402784:	90                   	nop
  402785:	90                   	nop
  402786:	90                   	nop
  402787:	90                   	nop
  402788:	90                   	nop
  402789:	90                   	nop
  40278a:	90                   	nop
  40278b:	90                   	nop
  40278c:	90                   	nop
  40278d:	90                   	nop
  40278e:	90                   	nop
  40278f:	90                   	nop
  402790:	90                   	nop
  402791:	90                   	nop
  402792:	90                   	nop
  402793:	90                   	nop
  402794:	90                   	nop
  402795:	90                   	nop
  402796:	90                   	nop
  402797:	90                   	nop
  402798:	90                   	nop
  402799:	90                   	nop
  40279a:	90                   	nop
  40279b:	90                   	nop
  40279c:	90                   	nop
  40279d:	90                   	nop
  40279e:	90                   	nop
  40279f:	90                   	nop
  4027a0:	90                   	nop
  4027a1:	90                   	nop
  4027a2:	90                   	nop
  4027a3:	90                   	nop
  4027a4:	90                   	nop
  4027a5:	90                   	nop
  4027a6:	90                   	nop
  4027a7:	90                   	nop
  4027a8:	90                   	nop
  4027a9:	90                   	nop
  4027aa:	90                   	nop
  4027ab:	90                   	nop
  4027ac:	90                   	nop
  4027ad:	90                   	nop
  4027ae:	90                   	nop
  4027af:	90                   	nop
  4027b0:	90                   	nop
  4027b1:	90                   	nop
  4027b2:	90                   	nop
  4027b3:	90                   	nop
  4027b4:	90                   	nop
  4027b5:	90                   	nop
  4027b6:	90                   	nop
  4027b7:	90                   	nop
  4027b8:	90                   	nop
  4027b9:	90                   	nop
  4027ba:	90                   	nop
  4027bb:	90                   	nop
  4027bc:	90                   	nop
  4027bd:	90                   	nop
  4027be:	90                   	nop
  4027bf:	90                   	nop
  4027c0:	90                   	nop
  4027c1:	90                   	nop
  4027c2:	90                   	nop
  4027c3:	90                   	nop
  4027c4:	90                   	nop
  4027c5:	90                   	nop
  4027c6:	90                   	nop
  4027c7:	90                   	nop
  4027c8:	90                   	nop
  4027c9:	90                   	nop
  4027ca:	90                   	nop
  4027cb:	90                   	nop
  4027cc:	90                   	nop
  4027cd:	90                   	nop
  4027ce:	90                   	nop
  4027cf:	90                   	nop
  4027d0:	90                   	nop
  4027d1:	90                   	nop
  4027d2:	90                   	nop
  4027d3:	90                   	nop
  4027d4:	90                   	nop
  4027d5:	90                   	nop
  4027d6:	90                   	nop
  4027d7:	90                   	nop
  4027d8:	90                   	nop
  4027d9:	90                   	nop
  4027da:	90                   	nop
  4027db:	90                   	nop
  4027dc:	90                   	nop
  4027dd:	90                   	nop
  4027de:	90                   	nop
  4027df:	90                   	nop
  4027e0:	90                   	nop
  4027e1:	90                   	nop
  4027e2:	90                   	nop
  4027e3:	90                   	nop
  4027e4:	90                   	nop
  4027e5:	90                   	nop
  4027e6:	90                   	nop
  4027e7:	90                   	nop
  4027e8:	90                   	nop
  4027e9:	90                   	nop
  4027ea:	90                   	nop
  4027eb:	90                   	nop
  4027ec:	90                   	nop
  4027ed:	90                   	nop
  4027ee:	90                   	nop
  4027ef:	90                   	nop
  4027f0:	90                   	nop
  4027f1:	90                   	nop
  4027f2:	90                   	nop
  4027f3:	90                   	nop
  4027f4:	90                   	nop
  4027f5:	90                   	nop
  4027f6:	90                   	nop
  4027f7:	90                   	nop
  4027f8:	90                   	nop
  4027f9:	90                   	nop
  4027fa:	90                   	nop
  4027fb:	90                   	nop
  4027fc:	90                   	nop
  4027fd:	90                   	nop
  4027fe:	90                   	nop
  4027ff:	90                   	nop
  402800:	90                   	nop
  402801:	90                   	nop
  402802:	90                   	nop
  402803:	90                   	nop
  402804:	90                   	nop
  402805:	90                   	nop
  402806:	90                   	nop
  402807:	90                   	nop
  402808:	90                   	nop
  402809:	90                   	nop
  40280a:	90                   	nop
  40280b:	90                   	nop
  40280c:	90                   	nop
  40280d:	90                   	nop
  40280e:	90                   	nop
  40280f:	90                   	nop
  402810:	90                   	nop
  402811:	90                   	nop
  402812:	90                   	nop
  402813:	90                   	nop
  402814:	90                   	nop
  402815:	90                   	nop
  402816:	90                   	nop
  402817:	90                   	nop
  402818:	90                   	nop
  402819:	90                   	nop
  40281a:	90                   	nop
  40281b:	90                   	nop
  40281c:	90                   	nop
  40281d:	90                   	nop
  40281e:	90                   	nop
  40281f:	90                   	nop
  402820:	90                   	nop
  402821:	90                   	nop
  402822:	90                   	nop
  402823:	90                   	nop
  402824:	90                   	nop
  402825:	90                   	nop
  402826:	90                   	nop
  402827:	90                   	nop
  402828:	90                   	nop
  402829:	90                   	nop
  40282a:	90                   	nop
  40282b:	90                   	nop
  40282c:	90                   	nop
  40282d:	90                   	nop
  40282e:	90                   	nop
  40282f:	90                   	nop
  402830:	90                   	nop
  402831:	90                   	nop
  402832:	90                   	nop
  402833:	90                   	nop
  402834:	90                   	nop
  402835:	90                   	nop
  402836:	90                   	nop
  402837:	90                   	nop
  402838:	90                   	nop
  402839:	90                   	nop
  40283a:	90                   	nop
  40283b:	90                   	nop
  40283c:	90                   	nop
  40283d:	90                   	nop
  40283e:	90                   	nop
  40283f:	90                   	nop
  402840:	90                   	nop
  402841:	90                   	nop
  402842:	90                   	nop
  402843:	90                   	nop
  402844:	90                   	nop
  402845:	90                   	nop
  402846:	90                   	nop
  402847:	90                   	nop
  402848:	90                   	nop
  402849:	90                   	nop
  40284a:	90                   	nop
  40284b:	90                   	nop
  40284c:	90                   	nop
  40284d:	90                   	nop
  40284e:	90                   	nop
  40284f:	90                   	nop
  402850:	90                   	nop
  402851:	90                   	nop
  402852:	90                   	nop
  402853:	90                   	nop
  402854:	90                   	nop
  402855:	90                   	nop
  402856:	90                   	nop
  402857:	90                   	nop
  402858:	90                   	nop
  402859:	90                   	nop
  40285a:	90                   	nop
  40285b:	90                   	nop
  40285c:	90                   	nop
  40285d:	90                   	nop
  40285e:	90                   	nop
  40285f:	90                   	nop
  402860:	90                   	nop
  402861:	90                   	nop
  402862:	90                   	nop
  402863:	90                   	nop
  402864:	90                   	nop
  402865:	90                   	nop
  402866:	90                   	nop
  402867:	90                   	nop
  402868:	90                   	nop
  402869:	90                   	nop
  40286a:	90                   	nop
  40286b:	90                   	nop
  40286c:	90                   	nop
  40286d:	90                   	nop
  40286e:	90                   	nop
  40286f:	90                   	nop
  402870:	90                   	nop
  402871:	90                   	nop
  402872:	90                   	nop
  402873:	90                   	nop
  402874:	90                   	nop
  402875:	90                   	nop
  402876:	90                   	nop
  402877:	90                   	nop
  402878:	90                   	nop
  402879:	90                   	nop
  40287a:	90                   	nop
  40287b:	90                   	nop
  40287c:	90                   	nop
  40287d:	90                   	nop
  40287e:	90                   	nop
  40287f:	90                   	nop
  402880:	90                   	nop
  402881:	90                   	nop
  402882:	90                   	nop
  402883:	90                   	nop
  402884:	90                   	nop
  402885:	90                   	nop
  402886:	90                   	nop
  402887:	90                   	nop
  402888:	90                   	nop
  402889:	90                   	nop
  40288a:	90                   	nop
  40288b:	90                   	nop
  40288c:	90                   	nop
  40288d:	90                   	nop
  40288e:	90                   	nop
  40288f:	90                   	nop
  402890:	90                   	nop
  402891:	90                   	nop
  402892:	90                   	nop
  402893:	90                   	nop
  402894:	90                   	nop
  402895:	90                   	nop
  402896:	90                   	nop
  402897:	90                   	nop
  402898:	90                   	nop
  402899:	90                   	nop
  40289a:	90                   	nop
  40289b:	90                   	nop
  40289c:	90                   	nop
  40289d:	90                   	nop
  40289e:	90                   	nop
  40289f:	90                   	nop
  4028a0:	90                   	nop
  4028a1:	90                   	nop
  4028a2:	90                   	nop
  4028a3:	90                   	nop
  4028a4:	90                   	nop
  4028a5:	90                   	nop
  4028a6:	90                   	nop
  4028a7:	90                   	nop
  4028a8:	90                   	nop
  4028a9:	90                   	nop
  4028aa:	90                   	nop
  4028ab:	90                   	nop
  4028ac:	90                   	nop
  4028ad:	90                   	nop
  4028ae:	90                   	nop
  4028af:	90                   	nop
  4028b0:	90                   	nop
  4028b1:	90                   	nop
  4028b2:	90                   	nop
  4028b3:	90                   	nop
  4028b4:	90                   	nop
  4028b5:	90                   	nop
  4028b6:	90                   	nop
  4028b7:	90                   	nop
  4028b8:	90                   	nop
  4028b9:	90                   	nop
  4028ba:	90                   	nop
  4028bb:	90                   	nop
  4028bc:	90                   	nop
  4028bd:	90                   	nop
  4028be:	90                   	nop
  4028bf:	90                   	nop
  4028c0:	90                   	nop
  4028c1:	90                   	nop
  4028c2:	90                   	nop
  4028c3:	90                   	nop
  4028c4:	90                   	nop
  4028c5:	90                   	nop
  4028c6:	90                   	nop
  4028c7:	90                   	nop
  4028c8:	90                   	nop
  4028c9:	90                   	nop
  4028ca:	90                   	nop
  4028cb:	90                   	nop
  4028cc:	90                   	nop
  4028cd:	90                   	nop
  4028ce:	90                   	nop
  4028cf:	90                   	nop
  4028d0:	90                   	nop
  4028d1:	90                   	nop
  4028d2:	90                   	nop
  4028d3:	90                   	nop
  4028d4:	90                   	nop
  4028d5:	90                   	nop
  4028d6:	90                   	nop
  4028d7:	90                   	nop
  4028d8:	90                   	nop
  4028d9:	90                   	nop
  4028da:	90                   	nop
  4028db:	90                   	nop
  4028dc:	90                   	nop
  4028dd:	90                   	nop
  4028de:	90                   	nop
  4028df:	90                   	nop
  4028e0:	90                   	nop
  4028e1:	90                   	nop
  4028e2:	90                   	nop
  4028e3:	90                   	nop
  4028e4:	90                   	nop
  4028e5:	90                   	nop
  4028e6:	90                   	nop
  4028e7:	90                   	nop
  4028e8:	90                   	nop
  4028e9:	90                   	nop
  4028ea:	90                   	nop
  4028eb:	90                   	nop
  4028ec:	90                   	nop
  4028ed:	90                   	nop
  4028ee:	90                   	nop
  4028ef:	90                   	nop
  4028f0:	90                   	nop
  4028f1:	90                   	nop
  4028f2:	90                   	nop
  4028f3:	90                   	nop
  4028f4:	90                   	nop
  4028f5:	90                   	nop
  4028f6:	90                   	nop
  4028f7:	90                   	nop
  4028f8:	90                   	nop
  4028f9:	90                   	nop
  4028fa:	90                   	nop
  4028fb:	90                   	nop
  4028fc:	90                   	nop
  4028fd:	90                   	nop
  4028fe:	90                   	nop
  4028ff:	90                   	nop
  402900:	90                   	nop
  402901:	90                   	nop
  402902:	90                   	nop
  402903:	90                   	nop
  402904:	90                   	nop
  402905:	90                   	nop
  402906:	90                   	nop
  402907:	90                   	nop
  402908:	90                   	nop
  402909:	90                   	nop
  40290a:	90                   	nop
  40290b:	90                   	nop
  40290c:	90                   	nop
  40290d:	90                   	nop
  40290e:	90                   	nop
  40290f:	90                   	nop
  402910:	90                   	nop
  402911:	90                   	nop
  402912:	90                   	nop
  402913:	90                   	nop
  402914:	90                   	nop
  402915:	90                   	nop
  402916:	90                   	nop
  402917:	90                   	nop
  402918:	90                   	nop
  402919:	90                   	nop
  40291a:	90                   	nop
  40291b:	90                   	nop
  40291c:	90                   	nop
  40291d:	90                   	nop
  40291e:	90                   	nop
  40291f:	90                   	nop
  402920:	90                   	nop
  402921:	90                   	nop
  402922:	90                   	nop
  402923:	90                   	nop
  402924:	90                   	nop
  402925:	90                   	nop
  402926:	90                   	nop
  402927:	90                   	nop
  402928:	90                   	nop
  402929:	90                   	nop
  40292a:	90                   	nop
  40292b:	90                   	nop
  40292c:	90                   	nop
  40292d:	90                   	nop
  40292e:	90                   	nop
  40292f:	90                   	nop
  402930:	90                   	nop
  402931:	90                   	nop
  402932:	90                   	nop
  402933:	90                   	nop
  402934:	90                   	nop
  402935:	90                   	nop
  402936:	90                   	nop
  402937:	90                   	nop
  402938:	90                   	nop
  402939:	90                   	nop
  40293a:	90                   	nop
  40293b:	90                   	nop
  40293c:	90                   	nop
  40293d:	90                   	nop
  40293e:	90                   	nop
  40293f:	90                   	nop
  402940:	90                   	nop
  402941:	90                   	nop
  402942:	90                   	nop
  402943:	90                   	nop
  402944:	90                   	nop
  402945:	90                   	nop
  402946:	90                   	nop
  402947:	90                   	nop
  402948:	90                   	nop
  402949:	90                   	nop
  40294a:	90                   	nop
  40294b:	90                   	nop
  40294c:	90                   	nop
  40294d:	90                   	nop
  40294e:	90                   	nop
  40294f:	90                   	nop
  402950:	90                   	nop
  402951:	90                   	nop
  402952:	90                   	nop
  402953:	90                   	nop
  402954:	90                   	nop
  402955:	90                   	nop
  402956:	90                   	nop
  402957:	90                   	nop
  402958:	90                   	nop
  402959:	90                   	nop
  40295a:	90                   	nop
  40295b:	90                   	nop
  40295c:	90                   	nop
  40295d:	90                   	nop
  40295e:	90                   	nop
  40295f:	90                   	nop
  402960:	90                   	nop
  402961:	90                   	nop
  402962:	90                   	nop
  402963:	90                   	nop
  402964:	90                   	nop
  402965:	90                   	nop
  402966:	90                   	nop
  402967:	90                   	nop
  402968:	90                   	nop
  402969:	90                   	nop
  40296a:	90                   	nop
  40296b:	90                   	nop
  40296c:	90                   	nop
  40296d:	90                   	nop
  40296e:	90                   	nop
  40296f:	90                   	nop
  402970:	90                   	nop
  402971:	90                   	nop
  402972:	90                   	nop
  402973:	90                   	nop
  402974:	90                   	nop
  402975:	90                   	nop
  402976:	90                   	nop
  402977:	90                   	nop
  402978:	90                   	nop
  402979:	90                   	nop
  40297a:	90                   	nop
  40297b:	90                   	nop
  40297c:	90                   	nop
  40297d:	90                   	nop
  40297e:	90                   	nop
  40297f:	90                   	nop
  402980:	90                   	nop
  402981:	90                   	nop
  402982:	90                   	nop
  402983:	90                   	nop
  402984:	90                   	nop
  402985:	90                   	nop
  402986:	90                   	nop
  402987:	90                   	nop
  402988:	90                   	nop
  402989:	90                   	nop
  40298a:	90                   	nop
  40298b:	90                   	nop
  40298c:	90                   	nop
  40298d:	90                   	nop
  40298e:	90                   	nop
  40298f:	90                   	nop
  402990:	90                   	nop
  402991:	90                   	nop
  402992:	90                   	nop
  402993:	90                   	nop
  402994:	90                   	nop
  402995:	90                   	nop
  402996:	90                   	nop
  402997:	90                   	nop
  402998:	90                   	nop
  402999:	90                   	nop
  40299a:	90                   	nop
  40299b:	90                   	nop
  40299c:	90                   	nop
  40299d:	90                   	nop
  40299e:	90                   	nop
  40299f:	90                   	nop
  4029a0:	90                   	nop
  4029a1:	90                   	nop
  4029a2:	90                   	nop
  4029a3:	90                   	nop
  4029a4:	90                   	nop
  4029a5:	90                   	nop
  4029a6:	90                   	nop
  4029a7:	90                   	nop
  4029a8:	90                   	nop
  4029a9:	90                   	nop
  4029aa:	90                   	nop
  4029ab:	90                   	nop
  4029ac:	90                   	nop
  4029ad:	90                   	nop
  4029ae:	90                   	nop
  4029af:	90                   	nop
  4029b0:	90                   	nop
  4029b1:	90                   	nop
  4029b2:	90                   	nop
  4029b3:	90                   	nop
  4029b4:	90                   	nop
  4029b5:	90                   	nop
  4029b6:	90                   	nop
  4029b7:	90                   	nop
  4029b8:	90                   	nop
  4029b9:	90                   	nop
  4029ba:	90                   	nop
  4029bb:	90                   	nop
  4029bc:	90                   	nop
  4029bd:	90                   	nop
  4029be:	90                   	nop
  4029bf:	90                   	nop
  4029c0:	90                   	nop
  4029c1:	90                   	nop
  4029c2:	90                   	nop
  4029c3:	90                   	nop
  4029c4:	90                   	nop
  4029c5:	90                   	nop
  4029c6:	90                   	nop
  4029c7:	90                   	nop
  4029c8:	90                   	nop
  4029c9:	90                   	nop
  4029ca:	90                   	nop
  4029cb:	90                   	nop
  4029cc:	90                   	nop
  4029cd:	90                   	nop
  4029ce:	90                   	nop
  4029cf:	90                   	nop
  4029d0:	90                   	nop
  4029d1:	90                   	nop
  4029d2:	90                   	nop
  4029d3:	90                   	nop
  4029d4:	90                   	nop
  4029d5:	90                   	nop
  4029d6:	90                   	nop
  4029d7:	90                   	nop
  4029d8:	90                   	nop
  4029d9:	90                   	nop
  4029da:	90                   	nop
  4029db:	90                   	nop
  4029dc:	90                   	nop
  4029dd:	90                   	nop
  4029de:	90                   	nop
  4029df:	90                   	nop
  4029e0:	90                   	nop
  4029e1:	90                   	nop
  4029e2:	90                   	nop
  4029e3:	90                   	nop
  4029e4:	90                   	nop
  4029e5:	90                   	nop
  4029e6:	90                   	nop
  4029e7:	90                   	nop
  4029e8:	90                   	nop
  4029e9:	90                   	nop
  4029ea:	90                   	nop
  4029eb:	90                   	nop
  4029ec:	90                   	nop
  4029ed:	90                   	nop
  4029ee:	90                   	nop
  4029ef:	90                   	nop
  4029f0:	90                   	nop
  4029f1:	90                   	nop
  4029f2:	90                   	nop
  4029f3:	90                   	nop
  4029f4:	90                   	nop
  4029f5:	90                   	nop
  4029f6:	90                   	nop
  4029f7:	90                   	nop
  4029f8:	90                   	nop
  4029f9:	90                   	nop
  4029fa:	90                   	nop
  4029fb:	90                   	nop
  4029fc:	90                   	nop
  4029fd:	90                   	nop
  4029fe:	90                   	nop
  4029ff:	90                   	nop
  402a00:	90                   	nop
  402a01:	90                   	nop
  402a02:	90                   	nop
  402a03:	90                   	nop
  402a04:	90                   	nop
  402a05:	90                   	nop
  402a06:	90                   	nop
  402a07:	90                   	nop
  402a08:	90                   	nop
  402a09:	90                   	nop
  402a0a:	90                   	nop
  402a0b:	90                   	nop
  402a0c:	90                   	nop
  402a0d:	90                   	nop
  402a0e:	90                   	nop
  402a0f:	90                   	nop
  402a10:	90                   	nop
  402a11:	90                   	nop
  402a12:	90                   	nop
  402a13:	90                   	nop
  402a14:	90                   	nop
  402a15:	90                   	nop
  402a16:	90                   	nop
  402a17:	90                   	nop
  402a18:	90                   	nop
  402a19:	90                   	nop
  402a1a:	90                   	nop
  402a1b:	90                   	nop
  402a1c:	90                   	nop
  402a1d:	90                   	nop
  402a1e:	90                   	nop
  402a1f:	90                   	nop
  402a20:	90                   	nop
  402a21:	90                   	nop
  402a22:	90                   	nop
  402a23:	90                   	nop
  402a24:	90                   	nop
  402a25:	90                   	nop
  402a26:	90                   	nop
  402a27:	90                   	nop
  402a28:	90                   	nop
  402a29:	90                   	nop
  402a2a:	90                   	nop
  402a2b:	90                   	nop
  402a2c:	90                   	nop
  402a2d:	90                   	nop
  402a2e:	90                   	nop
  402a2f:	90                   	nop
  402a30:	90                   	nop
  402a31:	90                   	nop
  402a32:	90                   	nop
  402a33:	90                   	nop
  402a34:	90                   	nop
  402a35:	90                   	nop
  402a36:	90                   	nop
  402a37:	90                   	nop
  402a38:	90                   	nop
  402a39:	90                   	nop
  402a3a:	90                   	nop
  402a3b:	90                   	nop
  402a3c:	90                   	nop
  402a3d:	90                   	nop
  402a3e:	90                   	nop
  402a3f:	90                   	nop
  402a40:	90                   	nop
  402a41:	90                   	nop
  402a42:	90                   	nop
  402a43:	90                   	nop
  402a44:	90                   	nop
  402a45:	90                   	nop
  402a46:	90                   	nop
  402a47:	90                   	nop
  402a48:	90                   	nop
  402a49:	90                   	nop
  402a4a:	90                   	nop
  402a4b:	90                   	nop
  402a4c:	90                   	nop
  402a4d:	90                   	nop
  402a4e:	90                   	nop
  402a4f:	90                   	nop
  402a50:	90                   	nop
  402a51:	90                   	nop
  402a52:	90                   	nop
  402a53:	90                   	nop
  402a54:	90                   	nop
  402a55:	90                   	nop
  402a56:	90                   	nop
  402a57:	90                   	nop
  402a58:	90                   	nop
  402a59:	90                   	nop
  402a5a:	90                   	nop
  402a5b:	90                   	nop
  402a5c:	90                   	nop
  402a5d:	90                   	nop
  402a5e:	90                   	nop
  402a5f:	90                   	nop
  402a60:	90                   	nop
  402a61:	90                   	nop
  402a62:	90                   	nop
  402a63:	90                   	nop
  402a64:	90                   	nop
  402a65:	90                   	nop
  402a66:	90                   	nop
  402a67:	90                   	nop
  402a68:	90                   	nop
  402a69:	90                   	nop
  402a6a:	90                   	nop
  402a6b:	90                   	nop
  402a6c:	90                   	nop
  402a6d:	90                   	nop
  402a6e:	90                   	nop
  402a6f:	90                   	nop
  402a70:	90                   	nop
  402a71:	90                   	nop
  402a72:	90                   	nop
  402a73:	90                   	nop
  402a74:	90                   	nop
  402a75:	90                   	nop
  402a76:	90                   	nop
  402a77:	90                   	nop
  402a78:	90                   	nop
  402a79:	90                   	nop
  402a7a:	90                   	nop
  402a7b:	90                   	nop
  402a7c:	90                   	nop
  402a7d:	90                   	nop
  402a7e:	90                   	nop
  402a7f:	90                   	nop
  402a80:	90                   	nop
  402a81:	90                   	nop
  402a82:	90                   	nop
  402a83:	90                   	nop
  402a84:	90                   	nop
  402a85:	90                   	nop
  402a86:	90                   	nop
  402a87:	90                   	nop
  402a88:	90                   	nop
  402a89:	90                   	nop
  402a8a:	90                   	nop
  402a8b:	90                   	nop
  402a8c:	90                   	nop
  402a8d:	90                   	nop
  402a8e:	90                   	nop
  402a8f:	90                   	nop
  402a90:	90                   	nop
  402a91:	90                   	nop
  402a92:	90                   	nop
  402a93:	90                   	nop
  402a94:	90                   	nop
  402a95:	90                   	nop
  402a96:	90                   	nop
  402a97:	90                   	nop
  402a98:	90                   	nop
  402a99:	90                   	nop
  402a9a:	90                   	nop
  402a9b:	90                   	nop
  402a9c:	90                   	nop
  402a9d:	90                   	nop
  402a9e:	90                   	nop
  402a9f:	90                   	nop
  402aa0:	90                   	nop
  402aa1:	90                   	nop
  402aa2:	90                   	nop
  402aa3:	90                   	nop
  402aa4:	90                   	nop
  402aa5:	90                   	nop
  402aa6:	90                   	nop
  402aa7:	90                   	nop
  402aa8:	90                   	nop
  402aa9:	90                   	nop
  402aaa:	90                   	nop
  402aab:	90                   	nop
  402aac:	90                   	nop
  402aad:	90                   	nop
  402aae:	90                   	nop
  402aaf:	90                   	nop
  402ab0:	90                   	nop
  402ab1:	90                   	nop
  402ab2:	90                   	nop
  402ab3:	90                   	nop
  402ab4:	90                   	nop
  402ab5:	90                   	nop
  402ab6:	90                   	nop
  402ab7:	90                   	nop
  402ab8:	90                   	nop
  402ab9:	90                   	nop
  402aba:	90                   	nop
  402abb:	90                   	nop
  402abc:	90                   	nop
  402abd:	90                   	nop
  402abe:	90                   	nop
  402abf:	90                   	nop
  402ac0:	90                   	nop
  402ac1:	90                   	nop
  402ac2:	90                   	nop
  402ac3:	90                   	nop
  402ac4:	90                   	nop
  402ac5:	90                   	nop
  402ac6:	90                   	nop
  402ac7:	90                   	nop
  402ac8:	90                   	nop
  402ac9:	90                   	nop
  402aca:	90                   	nop
  402acb:	90                   	nop
  402acc:	90                   	nop
  402acd:	90                   	nop
  402ace:	90                   	nop
  402acf:	90                   	nop
  402ad0:	90                   	nop
  402ad1:	90                   	nop
  402ad2:	90                   	nop
  402ad3:	90                   	nop
  402ad4:	90                   	nop
  402ad5:	90                   	nop
  402ad6:	90                   	nop
  402ad7:	90                   	nop
  402ad8:	90                   	nop
  402ad9:	90                   	nop
  402ada:	90                   	nop
  402adb:	90                   	nop
  402adc:	90                   	nop
  402add:	90                   	nop
  402ade:	90                   	nop
  402adf:	90                   	nop
  402ae0:	90                   	nop
  402ae1:	90                   	nop
  402ae2:	90                   	nop
  402ae3:	90                   	nop
  402ae4:	90                   	nop
  402ae5:	90                   	nop
  402ae6:	90                   	nop
  402ae7:	90                   	nop
  402ae8:	90                   	nop
  402ae9:	90                   	nop
  402aea:	90                   	nop
  402aeb:	90                   	nop
  402aec:	90                   	nop
  402aed:	90                   	nop
  402aee:	90                   	nop
  402aef:	90                   	nop
  402af0:	90                   	nop
  402af1:	90                   	nop
  402af2:	90                   	nop
  402af3:	90                   	nop
  402af4:	90                   	nop
  402af5:	90                   	nop
  402af6:	90                   	nop
  402af7:	90                   	nop
  402af8:	90                   	nop
  402af9:	90                   	nop
  402afa:	90                   	nop
  402afb:	90                   	nop
  402afc:	90                   	nop
  402afd:	90                   	nop
  402afe:	90                   	nop
  402aff:	90                   	nop
  402b00:	90                   	nop
  402b01:	90                   	nop
  402b02:	90                   	nop
  402b03:	90                   	nop
  402b04:	90                   	nop
  402b05:	90                   	nop
  402b06:	90                   	nop
  402b07:	90                   	nop
  402b08:	90                   	nop
  402b09:	90                   	nop
  402b0a:	90                   	nop
  402b0b:	90                   	nop
  402b0c:	90                   	nop
  402b0d:	90                   	nop
  402b0e:	90                   	nop
  402b0f:	90                   	nop
  402b10:	90                   	nop
  402b11:	90                   	nop
  402b12:	90                   	nop
  402b13:	90                   	nop
  402b14:	90                   	nop
  402b15:	90                   	nop
  402b16:	90                   	nop
  402b17:	90                   	nop
  402b18:	90                   	nop
  402b19:	90                   	nop
  402b1a:	90                   	nop
  402b1b:	90                   	nop
  402b1c:	90                   	nop
  402b1d:	90                   	nop
  402b1e:	90                   	nop
  402b1f:	90                   	nop
  402b20:	90                   	nop
  402b21:	90                   	nop
  402b22:	90                   	nop
  402b23:	90                   	nop
  402b24:	90                   	nop
  402b25:	90                   	nop
  402b26:	90                   	nop
  402b27:	90                   	nop
  402b28:	90                   	nop
  402b29:	90                   	nop
  402b2a:	90                   	nop
  402b2b:	90                   	nop
  402b2c:	90                   	nop
  402b2d:	90                   	nop
  402b2e:	90                   	nop
  402b2f:	90                   	nop
  402b30:	90                   	nop
  402b31:	90                   	nop
  402b32:	90                   	nop
  402b33:	90                   	nop
  402b34:	90                   	nop
  402b35:	90                   	nop
  402b36:	90                   	nop
  402b37:	90                   	nop
  402b38:	90                   	nop
  402b39:	90                   	nop
  402b3a:	90                   	nop
  402b3b:	90                   	nop
  402b3c:	90                   	nop
  402b3d:	90                   	nop
  402b3e:	90                   	nop
  402b3f:	90                   	nop
  402b40:	90                   	nop
  402b41:	90                   	nop
  402b42:	90                   	nop
  402b43:	90                   	nop
  402b44:	90                   	nop
  402b45:	90                   	nop
  402b46:	90                   	nop
  402b47:	90                   	nop
  402b48:	90                   	nop
  402b49:	90                   	nop
  402b4a:	90                   	nop
  402b4b:	90                   	nop
  402b4c:	90                   	nop
  402b4d:	90                   	nop
  402b4e:	90                   	nop
  402b4f:	90                   	nop
  402b50:	90                   	nop
  402b51:	90                   	nop
  402b52:	90                   	nop
  402b53:	90                   	nop
  402b54:	90                   	nop
  402b55:	90                   	nop
  402b56:	90                   	nop
  402b57:	90                   	nop
  402b58:	90                   	nop
  402b59:	90                   	nop
  402b5a:	90                   	nop
  402b5b:	90                   	nop
  402b5c:	90                   	nop
  402b5d:	90                   	nop
  402b5e:	90                   	nop
  402b5f:	90                   	nop
  402b60:	90                   	nop
  402b61:	90                   	nop
  402b62:	90                   	nop
  402b63:	90                   	nop
  402b64:	90                   	nop
  402b65:	90                   	nop
  402b66:	90                   	nop
  402b67:	90                   	nop
  402b68:	90                   	nop
  402b69:	90                   	nop
  402b6a:	90                   	nop
  402b6b:	90                   	nop
  402b6c:	90                   	nop
  402b6d:	90                   	nop
  402b6e:	90                   	nop
  402b6f:	90                   	nop
  402b70:	90                   	nop
  402b71:	90                   	nop
  402b72:	90                   	nop
  402b73:	90                   	nop
  402b74:	90                   	nop
  402b75:	90                   	nop
  402b76:	90                   	nop
  402b77:	90                   	nop
  402b78:	90                   	nop
  402b79:	90                   	nop
  402b7a:	90                   	nop
  402b7b:	90                   	nop
  402b7c:	90                   	nop
  402b7d:	90                   	nop
  402b7e:	90                   	nop
  402b7f:	90                   	nop
  402b80:	90                   	nop
  402b81:	90                   	nop
  402b82:	90                   	nop
  402b83:	90                   	nop
  402b84:	90                   	nop
  402b85:	90                   	nop
  402b86:	90                   	nop
  402b87:	90                   	nop
  402b88:	90                   	nop
  402b89:	90                   	nop
  402b8a:	90                   	nop
  402b8b:	90                   	nop
  402b8c:	90                   	nop
  402b8d:	90                   	nop
  402b8e:	90                   	nop
  402b8f:	90                   	nop
  402b90:	90                   	nop
  402b91:	90                   	nop
  402b92:	90                   	nop
  402b93:	90                   	nop
  402b94:	90                   	nop
  402b95:	90                   	nop
  402b96:	90                   	nop
  402b97:	90                   	nop
  402b98:	90                   	nop
  402b99:	90                   	nop
  402b9a:	90                   	nop
  402b9b:	90                   	nop
  402b9c:	90                   	nop
  402b9d:	90                   	nop
  402b9e:	90                   	nop
  402b9f:	90                   	nop
  402ba0:	90                   	nop
  402ba1:	90                   	nop
  402ba2:	90                   	nop
  402ba3:	90                   	nop
  402ba4:	90                   	nop
  402ba5:	90                   	nop
  402ba6:	90                   	nop
  402ba7:	90                   	nop
  402ba8:	90                   	nop
  402ba9:	90                   	nop
  402baa:	90                   	nop
  402bab:	90                   	nop
  402bac:	90                   	nop
  402bad:	90                   	nop
  402bae:	90                   	nop
  402baf:	90                   	nop
  402bb0:	90                   	nop
  402bb1:	90                   	nop
  402bb2:	90                   	nop
  402bb3:	90                   	nop
  402bb4:	90                   	nop
  402bb5:	90                   	nop
  402bb6:	90                   	nop
  402bb7:	90                   	nop
  402bb8:	90                   	nop
  402bb9:	90                   	nop
  402bba:	90                   	nop
  402bbb:	90                   	nop
  402bbc:	90                   	nop
  402bbd:	90                   	nop
  402bbe:	90                   	nop
  402bbf:	90                   	nop
  402bc0:	90                   	nop
  402bc1:	90                   	nop
  402bc2:	90                   	nop
  402bc3:	90                   	nop
  402bc4:	90                   	nop
  402bc5:	90                   	nop
  402bc6:	90                   	nop
  402bc7:	90                   	nop
  402bc8:	90                   	nop
  402bc9:	90                   	nop
  402bca:	90                   	nop
  402bcb:	90                   	nop
  402bcc:	90                   	nop
  402bcd:	90                   	nop
  402bce:	90                   	nop
  402bcf:	90                   	nop
  402bd0:	90                   	nop
  402bd1:	90                   	nop
  402bd2:	90                   	nop
  402bd3:	90                   	nop
  402bd4:	90                   	nop
  402bd5:	90                   	nop
  402bd6:	90                   	nop
  402bd7:	90                   	nop
  402bd8:	90                   	nop
  402bd9:	90                   	nop
  402bda:	90                   	nop
  402bdb:	90                   	nop
  402bdc:	90                   	nop
  402bdd:	90                   	nop
  402bde:	90                   	nop
  402bdf:	90                   	nop
  402be0:	90                   	nop
  402be1:	90                   	nop
  402be2:	90                   	nop
  402be3:	90                   	nop
  402be4:	90                   	nop
  402be5:	90                   	nop
  402be6:	90                   	nop
  402be7:	90                   	nop
  402be8:	90                   	nop
  402be9:	90                   	nop
  402bea:	90                   	nop
  402beb:	90                   	nop
  402bec:	90                   	nop
  402bed:	90                   	nop
  402bee:	90                   	nop
  402bef:	90                   	nop
  402bf0:	90                   	nop
  402bf1:	90                   	nop
  402bf2:	90                   	nop
  402bf3:	90                   	nop
  402bf4:	90                   	nop
  402bf5:	90                   	nop
  402bf6:	90                   	nop
  402bf7:	90                   	nop
  402bf8:	90                   	nop
  402bf9:	90                   	nop
  402bfa:	90                   	nop
  402bfb:	90                   	nop
  402bfc:	90                   	nop
  402bfd:	90                   	nop
  402bfe:	90                   	nop
  402bff:	90                   	nop
  402c00:	90                   	nop
  402c01:	90                   	nop
  402c02:	90                   	nop
  402c03:	90                   	nop
  402c04:	90                   	nop
  402c05:	90                   	nop
  402c06:	90                   	nop
  402c07:	90                   	nop
  402c08:	90                   	nop
  402c09:	90                   	nop
  402c0a:	90                   	nop
  402c0b:	90                   	nop
  402c0c:	90                   	nop
  402c0d:	90                   	nop
  402c0e:	90                   	nop
  402c0f:	90                   	nop
  402c10:	90                   	nop
  402c11:	90                   	nop
  402c12:	90                   	nop
  402c13:	90                   	nop
  402c14:	90                   	nop
  402c15:	90                   	nop
  402c16:	90                   	nop
  402c17:	90                   	nop
  402c18:	90                   	nop
  402c19:	90                   	nop
  402c1a:	90                   	nop
  402c1b:	90                   	nop
  402c1c:	90                   	nop
  402c1d:	90                   	nop
  402c1e:	90                   	nop
  402c1f:	90                   	nop
  402c20:	90                   	nop
  402c21:	90                   	nop
  402c22:	90                   	nop
  402c23:	90                   	nop
  402c24:	90                   	nop
  402c25:	90                   	nop
  402c26:	90                   	nop
  402c27:	90                   	nop
  402c28:	90                   	nop
  402c29:	90                   	nop
  402c2a:	90                   	nop
  402c2b:	90                   	nop
  402c2c:	90                   	nop
  402c2d:	90                   	nop
  402c2e:	90                   	nop
  402c2f:	90                   	nop
  402c30:	90                   	nop
  402c31:	90                   	nop
  402c32:	90                   	nop
  402c33:	90                   	nop
  402c34:	90                   	nop
  402c35:	90                   	nop
  402c36:	90                   	nop
  402c37:	90                   	nop
  402c38:	90                   	nop
  402c39:	90                   	nop
  402c3a:	90                   	nop
  402c3b:	90                   	nop
  402c3c:	90                   	nop
  402c3d:	90                   	nop
  402c3e:	90                   	nop
  402c3f:	90                   	nop
  402c40:	90                   	nop
  402c41:	90                   	nop
  402c42:	90                   	nop
  402c43:	90                   	nop
  402c44:	90                   	nop
  402c45:	90                   	nop
  402c46:	90                   	nop
  402c47:	90                   	nop
  402c48:	90                   	nop
  402c49:	90                   	nop
  402c4a:	90                   	nop
  402c4b:	90                   	nop
  402c4c:	90                   	nop
  402c4d:	90                   	nop
  402c4e:	90                   	nop
  402c4f:	90                   	nop
  402c50:	90                   	nop
  402c51:	90                   	nop
  402c52:	90                   	nop
  402c53:	90                   	nop
  402c54:	90                   	nop
  402c55:	90                   	nop
  402c56:	90                   	nop
  402c57:	90                   	nop
  402c58:	90                   	nop
  402c59:	90                   	nop
  402c5a:	90                   	nop
  402c5b:	90                   	nop
  402c5c:	90                   	nop
  402c5d:	90                   	nop
  402c5e:	90                   	nop
  402c5f:	90                   	nop
  402c60:	90                   	nop
  402c61:	90                   	nop
  402c62:	90                   	nop
  402c63:	90                   	nop
  402c64:	90                   	nop
  402c65:	90                   	nop
  402c66:	90                   	nop
  402c67:	90                   	nop
  402c68:	90                   	nop
  402c69:	90                   	nop
  402c6a:	90                   	nop
  402c6b:	90                   	nop
  402c6c:	90                   	nop
  402c6d:	90                   	nop
  402c6e:	90                   	nop
  402c6f:	90                   	nop
  402c70:	90                   	nop
  402c71:	90                   	nop
  402c72:	90                   	nop
  402c73:	90                   	nop
  402c74:	90                   	nop
  402c75:	90                   	nop
  402c76:	90                   	nop
  402c77:	90                   	nop
  402c78:	90                   	nop
  402c79:	90                   	nop
  402c7a:	90                   	nop
  402c7b:	90                   	nop
  402c7c:	90                   	nop
  402c7d:	90                   	nop
  402c7e:	90                   	nop
  402c7f:	90                   	nop
  402c80:	90                   	nop
  402c81:	90                   	nop
  402c82:	90                   	nop
  402c83:	90                   	nop
  402c84:	90                   	nop
  402c85:	90                   	nop
  402c86:	90                   	nop
  402c87:	90                   	nop
  402c88:	90                   	nop
  402c89:	90                   	nop
  402c8a:	90                   	nop
  402c8b:	90                   	nop
  402c8c:	90                   	nop
  402c8d:	90                   	nop
  402c8e:	90                   	nop
  402c8f:	90                   	nop
  402c90:	90                   	nop
  402c91:	90                   	nop
  402c92:	90                   	nop
  402c93:	90                   	nop
  402c94:	90                   	nop
  402c95:	90                   	nop
  402c96:	90                   	nop
  402c97:	90                   	nop
  402c98:	90                   	nop
  402c99:	90                   	nop
  402c9a:	90                   	nop
  402c9b:	90                   	nop
  402c9c:	90                   	nop
  402c9d:	90                   	nop
  402c9e:	90                   	nop
  402c9f:	90                   	nop
  402ca0:	90                   	nop
  402ca1:	90                   	nop
  402ca2:	90                   	nop
  402ca3:	90                   	nop
  402ca4:	90                   	nop
  402ca5:	90                   	nop
  402ca6:	90                   	nop
  402ca7:	90                   	nop
  402ca8:	90                   	nop
  402ca9:	90                   	nop
  402caa:	90                   	nop
  402cab:	90                   	nop
  402cac:	90                   	nop
  402cad:	90                   	nop
  402cae:	90                   	nop
  402caf:	90                   	nop
  402cb0:	90                   	nop
  402cb1:	90                   	nop
  402cb2:	90                   	nop
  402cb3:	90                   	nop
  402cb4:	90                   	nop
  402cb5:	90                   	nop
  402cb6:	90                   	nop
  402cb7:	90                   	nop
  402cb8:	90                   	nop
  402cb9:	90                   	nop
  402cba:	90                   	nop
  402cbb:	90                   	nop
  402cbc:	90                   	nop
  402cbd:	90                   	nop
  402cbe:	90                   	nop
  402cbf:	90                   	nop
  402cc0:	90                   	nop
  402cc1:	90                   	nop
  402cc2:	90                   	nop
  402cc3:	90                   	nop
  402cc4:	90                   	nop
  402cc5:	90                   	nop
  402cc6:	90                   	nop
  402cc7:	90                   	nop
  402cc8:	90                   	nop
  402cc9:	90                   	nop
  402cca:	90                   	nop
  402ccb:	90                   	nop
  402ccc:	90                   	nop
  402ccd:	90                   	nop
  402cce:	90                   	nop
  402ccf:	90                   	nop
  402cd0:	90                   	nop
  402cd1:	90                   	nop
  402cd2:	90                   	nop
  402cd3:	90                   	nop
  402cd4:	90                   	nop
  402cd5:	90                   	nop
  402cd6:	90                   	nop
  402cd7:	90                   	nop
  402cd8:	90                   	nop
  402cd9:	90                   	nop
  402cda:	90                   	nop
  402cdb:	90                   	nop
  402cdc:	90                   	nop
  402cdd:	90                   	nop
  402cde:	90                   	nop
  402cdf:	90                   	nop
  402ce0:	90                   	nop
  402ce1:	90                   	nop
  402ce2:	90                   	nop
  402ce3:	90                   	nop
  402ce4:	90                   	nop
  402ce5:	90                   	nop
  402ce6:	90                   	nop
  402ce7:	90                   	nop
  402ce8:	90                   	nop
  402ce9:	90                   	nop
  402cea:	90                   	nop
  402ceb:	90                   	nop
  402cec:	90                   	nop
  402ced:	90                   	nop
  402cee:	90                   	nop
  402cef:	90                   	nop
  402cf0:	90                   	nop
  402cf1:	90                   	nop
  402cf2:	90                   	nop
  402cf3:	90                   	nop
  402cf4:	90                   	nop
  402cf5:	90                   	nop
  402cf6:	90                   	nop
  402cf7:	90                   	nop
  402cf8:	90                   	nop
  402cf9:	90                   	nop
  402cfa:	90                   	nop
  402cfb:	90                   	nop
  402cfc:	90                   	nop
  402cfd:	90                   	nop
  402cfe:	90                   	nop
  402cff:	90                   	nop
  402d00:	90                   	nop
  402d01:	90                   	nop
  402d02:	90                   	nop
  402d03:	90                   	nop
  402d04:	90                   	nop
  402d05:	90                   	nop
  402d06:	90                   	nop
  402d07:	90                   	nop
  402d08:	90                   	nop
  402d09:	90                   	nop
  402d0a:	90                   	nop
  402d0b:	90                   	nop
  402d0c:	90                   	nop
  402d0d:	90                   	nop
  402d0e:	90                   	nop
  402d0f:	90                   	nop
  402d10:	90                   	nop
  402d11:	90                   	nop
  402d12:	90                   	nop
  402d13:	90                   	nop
  402d14:	90                   	nop
  402d15:	90                   	nop
  402d16:	90                   	nop
  402d17:	90                   	nop
  402d18:	90                   	nop
  402d19:	90                   	nop
  402d1a:	90                   	nop
  402d1b:	90                   	nop
  402d1c:	90                   	nop
  402d1d:	90                   	nop
  402d1e:	90                   	nop
  402d1f:	90                   	nop
  402d20:	90                   	nop
  402d21:	90                   	nop
  402d22:	90                   	nop
  402d23:	90                   	nop
  402d24:	90                   	nop
  402d25:	90                   	nop
  402d26:	90                   	nop
  402d27:	90                   	nop
  402d28:	90                   	nop
  402d29:	90                   	nop
  402d2a:	90                   	nop
  402d2b:	90                   	nop
  402d2c:	90                   	nop
  402d2d:	90                   	nop
  402d2e:	90                   	nop
  402d2f:	90                   	nop
  402d30:	90                   	nop
  402d31:	90                   	nop
  402d32:	90                   	nop
  402d33:	90                   	nop
  402d34:	90                   	nop
  402d35:	90                   	nop
  402d36:	90                   	nop
  402d37:	90                   	nop
  402d38:	90                   	nop
  402d39:	90                   	nop
  402d3a:	90                   	nop
  402d3b:	90                   	nop
  402d3c:	90                   	nop
  402d3d:	90                   	nop
  402d3e:	90                   	nop
  402d3f:	90                   	nop
  402d40:	90                   	nop
  402d41:	90                   	nop
  402d42:	90                   	nop
  402d43:	90                   	nop
  402d44:	90                   	nop
  402d45:	90                   	nop
  402d46:	90                   	nop
  402d47:	90                   	nop
  402d48:	90                   	nop
  402d49:	90                   	nop
  402d4a:	90                   	nop
  402d4b:	90                   	nop
  402d4c:	90                   	nop
  402d4d:	90                   	nop
  402d4e:	90                   	nop
  402d4f:	90                   	nop
  402d50:	90                   	nop
  402d51:	90                   	nop
  402d52:	90                   	nop
  402d53:	90                   	nop
  402d54:	90                   	nop
  402d55:	90                   	nop
  402d56:	90                   	nop
  402d57:	90                   	nop
  402d58:	90                   	nop
  402d59:	90                   	nop
  402d5a:	90                   	nop
  402d5b:	90                   	nop
  402d5c:	90                   	nop
  402d5d:	90                   	nop
  402d5e:	90                   	nop
  402d5f:	90                   	nop
  402d60:	90                   	nop
  402d61:	90                   	nop
  402d62:	90                   	nop
  402d63:	90                   	nop
  402d64:	90                   	nop
  402d65:	90                   	nop
  402d66:	90                   	nop
  402d67:	90                   	nop
  402d68:	90                   	nop
  402d69:	90                   	nop
  402d6a:	90                   	nop
  402d6b:	90                   	nop
  402d6c:	90                   	nop
  402d6d:	90                   	nop
  402d6e:	90                   	nop
  402d6f:	90                   	nop
  402d70:	90                   	nop
  402d71:	90                   	nop
  402d72:	90                   	nop
  402d73:	90                   	nop
  402d74:	90                   	nop
  402d75:	90                   	nop
  402d76:	90                   	nop
  402d77:	90                   	nop
  402d78:	90                   	nop
  402d79:	90                   	nop
  402d7a:	90                   	nop
  402d7b:	90                   	nop
  402d7c:	90                   	nop
  402d7d:	90                   	nop
  402d7e:	90                   	nop
  402d7f:	90                   	nop
  402d80:	90                   	nop
  402d81:	90                   	nop
  402d82:	90                   	nop
  402d83:	90                   	nop
  402d84:	90                   	nop
  402d85:	90                   	nop
  402d86:	90                   	nop
  402d87:	90                   	nop
  402d88:	90                   	nop
  402d89:	90                   	nop
  402d8a:	90                   	nop
  402d8b:	90                   	nop
  402d8c:	90                   	nop
  402d8d:	90                   	nop
  402d8e:	90                   	nop
  402d8f:	90                   	nop
  402d90:	90                   	nop
  402d91:	90                   	nop
  402d92:	90                   	nop
  402d93:	90                   	nop
  402d94:	90                   	nop
  402d95:	90                   	nop
  402d96:	90                   	nop
  402d97:	90                   	nop
  402d98:	90                   	nop
  402d99:	90                   	nop
  402d9a:	90                   	nop
  402d9b:	90                   	nop
  402d9c:	90                   	nop
  402d9d:	90                   	nop
  402d9e:	90                   	nop
  402d9f:	90                   	nop
  402da0:	90                   	nop
  402da1:	90                   	nop
  402da2:	90                   	nop
  402da3:	90                   	nop
  402da4:	90                   	nop
  402da5:	90                   	nop
  402da6:	90                   	nop
  402da7:	90                   	nop
  402da8:	90                   	nop
  402da9:	90                   	nop
  402daa:	90                   	nop
  402dab:	90                   	nop
  402dac:	90                   	nop
  402dad:	90                   	nop
  402dae:	90                   	nop
  402daf:	90                   	nop
  402db0:	90                   	nop
  402db1:	90                   	nop
  402db2:	90                   	nop
  402db3:	90                   	nop
  402db4:	90                   	nop
  402db5:	90                   	nop
  402db6:	90                   	nop
  402db7:	90                   	nop
  402db8:	90                   	nop
  402db9:	90                   	nop
  402dba:	90                   	nop
  402dbb:	90                   	nop
  402dbc:	90                   	nop
  402dbd:	90                   	nop
  402dbe:	90                   	nop
  402dbf:	90                   	nop
  402dc0:	90                   	nop
  402dc1:	90                   	nop
  402dc2:	90                   	nop
  402dc3:	90                   	nop
  402dc4:	90                   	nop
  402dc5:	90                   	nop
  402dc6:	90                   	nop
  402dc7:	90                   	nop
  402dc8:	90                   	nop
  402dc9:	90                   	nop
  402dca:	90                   	nop
  402dcb:	90                   	nop
  402dcc:	90                   	nop
  402dcd:	90                   	nop
  402dce:	90                   	nop
  402dcf:	90                   	nop
  402dd0:	90                   	nop
  402dd1:	90                   	nop
  402dd2:	90                   	nop
  402dd3:	90                   	nop
  402dd4:	90                   	nop
  402dd5:	90                   	nop
  402dd6:	90                   	nop
  402dd7:	90                   	nop
  402dd8:	90                   	nop
  402dd9:	90                   	nop
  402dda:	90                   	nop
  402ddb:	90                   	nop
  402ddc:	90                   	nop
  402ddd:	90                   	nop
  402dde:	90                   	nop
  402ddf:	90                   	nop
  402de0:	90                   	nop
  402de1:	90                   	nop
  402de2:	90                   	nop
  402de3:	90                   	nop
  402de4:	90                   	nop
  402de5:	90                   	nop
  402de6:	90                   	nop
  402de7:	90                   	nop
  402de8:	90                   	nop
  402de9:	90                   	nop
  402dea:	90                   	nop
  402deb:	90                   	nop
  402dec:	90                   	nop
  402ded:	90                   	nop
  402dee:	90                   	nop
  402def:	90                   	nop
  402df0:	90                   	nop
  402df1:	90                   	nop
  402df2:	90                   	nop
  402df3:	90                   	nop
  402df4:	90                   	nop
  402df5:	90                   	nop
  402df6:	90                   	nop
  402df7:	90                   	nop
  402df8:	90                   	nop
  402df9:	90                   	nop
  402dfa:	90                   	nop
  402dfb:	90                   	nop
  402dfc:	90                   	nop
  402dfd:	90                   	nop
  402dfe:	90                   	nop
  402dff:	90                   	nop
  402e00:	90                   	nop
  402e01:	90                   	nop
  402e02:	90                   	nop
  402e03:	90                   	nop
  402e04:	90                   	nop
  402e05:	90                   	nop
  402e06:	90                   	nop
  402e07:	90                   	nop
  402e08:	90                   	nop
  402e09:	90                   	nop
  402e0a:	90                   	nop
  402e0b:	90                   	nop
  402e0c:	90                   	nop
  402e0d:	90                   	nop
  402e0e:	90                   	nop
  402e0f:	90                   	nop
  402e10:	90                   	nop
  402e11:	90                   	nop
  402e12:	90                   	nop
  402e13:	90                   	nop
  402e14:	90                   	nop
  402e15:	90                   	nop
  402e16:	90                   	nop
  402e17:	90                   	nop
  402e18:	90                   	nop
  402e19:	90                   	nop
  402e1a:	90                   	nop
  402e1b:	90                   	nop
  402e1c:	90                   	nop
  402e1d:	90                   	nop
  402e1e:	90                   	nop
  402e1f:	90                   	nop
  402e20:	90                   	nop
  402e21:	90                   	nop
  402e22:	90                   	nop
  402e23:	90                   	nop
  402e24:	90                   	nop
  402e25:	90                   	nop
  402e26:	90                   	nop
  402e27:	90                   	nop
  402e28:	90                   	nop
  402e29:	90                   	nop
  402e2a:	90                   	nop
  402e2b:	90                   	nop
  402e2c:	90                   	nop
  402e2d:	90                   	nop
  402e2e:	90                   	nop
  402e2f:	90                   	nop
  402e30:	90                   	nop
  402e31:	90                   	nop
  402e32:	90                   	nop
  402e33:	90                   	nop
  402e34:	90                   	nop
  402e35:	90                   	nop
  402e36:	90                   	nop
  402e37:	90                   	nop
  402e38:	90                   	nop
  402e39:	90                   	nop
  402e3a:	90                   	nop
  402e3b:	90                   	nop
  402e3c:	90                   	nop
  402e3d:	90                   	nop
  402e3e:	90                   	nop
  402e3f:	90                   	nop
  402e40:	90                   	nop
  402e41:	90                   	nop
  402e42:	90                   	nop
  402e43:	90                   	nop
  402e44:	90                   	nop
  402e45:	90                   	nop
  402e46:	90                   	nop
  402e47:	90                   	nop
  402e48:	90                   	nop
  402e49:	90                   	nop
  402e4a:	90                   	nop
  402e4b:	90                   	nop
  402e4c:	90                   	nop
  402e4d:	90                   	nop
  402e4e:	90                   	nop
  402e4f:	90                   	nop
  402e50:	90                   	nop
  402e51:	90                   	nop
  402e52:	90                   	nop
  402e53:	90                   	nop
  402e54:	90                   	nop
  402e55:	90                   	nop
  402e56:	90                   	nop
  402e57:	90                   	nop
  402e58:	90                   	nop
  402e59:	90                   	nop
  402e5a:	90                   	nop
  402e5b:	90                   	nop
  402e5c:	90                   	nop
  402e5d:	90                   	nop
  402e5e:	90                   	nop
  402e5f:	90                   	nop
  402e60:	90                   	nop
  402e61:	90                   	nop
  402e62:	90                   	nop
  402e63:	90                   	nop
  402e64:	90                   	nop
  402e65:	90                   	nop
  402e66:	90                   	nop
  402e67:	90                   	nop
  402e68:	90                   	nop
  402e69:	90                   	nop
  402e6a:	90                   	nop
  402e6b:	90                   	nop
  402e6c:	90                   	nop
  402e6d:	90                   	nop
  402e6e:	90                   	nop
  402e6f:	90                   	nop
  402e70:	90                   	nop
  402e71:	90                   	nop
  402e72:	90                   	nop
  402e73:	90                   	nop
  402e74:	90                   	nop
  402e75:	90                   	nop
  402e76:	90                   	nop
  402e77:	90                   	nop
  402e78:	90                   	nop
  402e79:	90                   	nop
  402e7a:	90                   	nop
  402e7b:	90                   	nop
  402e7c:	90                   	nop
  402e7d:	90                   	nop
  402e7e:	90                   	nop
  402e7f:	90                   	nop
  402e80:	90                   	nop
  402e81:	90                   	nop
  402e82:	90                   	nop
  402e83:	90                   	nop
  402e84:	90                   	nop
  402e85:	90                   	nop
  402e86:	90                   	nop
  402e87:	90                   	nop
  402e88:	90                   	nop
  402e89:	90                   	nop
  402e8a:	90                   	nop
  402e8b:	90                   	nop
  402e8c:	90                   	nop
  402e8d:	90                   	nop
  402e8e:	90                   	nop
  402e8f:	90                   	nop
  402e90:	90                   	nop
  402e91:	90                   	nop
  402e92:	90                   	nop
  402e93:	90                   	nop
  402e94:	90                   	nop
  402e95:	90                   	nop
  402e96:	90                   	nop
  402e97:	90                   	nop
  402e98:	90                   	nop
  402e99:	90                   	nop
  402e9a:	90                   	nop
  402e9b:	90                   	nop
  402e9c:	90                   	nop
  402e9d:	90                   	nop
  402e9e:	90                   	nop
  402e9f:	90                   	nop
  402ea0:	90                   	nop
  402ea1:	90                   	nop
  402ea2:	90                   	nop
  402ea3:	90                   	nop
  402ea4:	90                   	nop
  402ea5:	90                   	nop
  402ea6:	90                   	nop
  402ea7:	90                   	nop
  402ea8:	90                   	nop
  402ea9:	90                   	nop
  402eaa:	90                   	nop
  402eab:	90                   	nop
  402eac:	90                   	nop
  402ead:	90                   	nop
  402eae:	90                   	nop
  402eaf:	90                   	nop
  402eb0:	90                   	nop
  402eb1:	90                   	nop
  402eb2:	90                   	nop
  402eb3:	90                   	nop
  402eb4:	90                   	nop
  402eb5:	90                   	nop
  402eb6:	90                   	nop
  402eb7:	90                   	nop
  402eb8:	90                   	nop
  402eb9:	90                   	nop
  402eba:	90                   	nop
  402ebb:	90                   	nop
  402ebc:	90                   	nop
  402ebd:	90                   	nop
  402ebe:	90                   	nop
  402ebf:	90                   	nop
  402ec0:	90                   	nop
  402ec1:	90                   	nop
  402ec2:	90                   	nop
  402ec3:	90                   	nop
  402ec4:	90                   	nop
  402ec5:	90                   	nop
  402ec6:	90                   	nop
  402ec7:	90                   	nop
  402ec8:	90                   	nop
  402ec9:	90                   	nop
  402eca:	90                   	nop
  402ecb:	90                   	nop
  402ecc:	90                   	nop
  402ecd:	90                   	nop
  402ece:	90                   	nop
  402ecf:	90                   	nop
  402ed0:	90                   	nop
  402ed1:	90                   	nop
  402ed2:	90                   	nop
  402ed3:	90                   	nop
  402ed4:	90                   	nop
  402ed5:	90                   	nop
  402ed6:	90                   	nop
  402ed7:	90                   	nop
  402ed8:	90                   	nop
  402ed9:	90                   	nop
  402eda:	90                   	nop
  402edb:	90                   	nop
  402edc:	90                   	nop
  402edd:	90                   	nop
  402ede:	90                   	nop
  402edf:	90                   	nop
  402ee0:	90                   	nop
  402ee1:	90                   	nop
  402ee2:	90                   	nop
  402ee3:	90                   	nop
  402ee4:	90                   	nop
  402ee5:	90                   	nop
  402ee6:	90                   	nop
  402ee7:	90                   	nop
  402ee8:	90                   	nop
  402ee9:	90                   	nop
  402eea:	90                   	nop
  402eeb:	90                   	nop
  402eec:	90                   	nop
  402eed:	90                   	nop
  402eee:	90                   	nop
  402eef:	90                   	nop
  402ef0:	90                   	nop
  402ef1:	90                   	nop
  402ef2:	90                   	nop
  402ef3:	90                   	nop
  402ef4:	90                   	nop
  402ef5:	90                   	nop
  402ef6:	90                   	nop
  402ef7:	90                   	nop
  402ef8:	90                   	nop
  402ef9:	90                   	nop
  402efa:	90                   	nop
  402efb:	90                   	nop
  402efc:	90                   	nop
  402efd:	90                   	nop
  402efe:	90                   	nop
  402eff:	90                   	nop
  402f00:	90                   	nop
  402f01:	90                   	nop
  402f02:	90                   	nop
  402f03:	90                   	nop
  402f04:	90                   	nop
  402f05:	90                   	nop
  402f06:	90                   	nop
  402f07:	90                   	nop
  402f08:	90                   	nop
  402f09:	90                   	nop
  402f0a:	90                   	nop
  402f0b:	90                   	nop
  402f0c:	90                   	nop
  402f0d:	90                   	nop
  402f0e:	90                   	nop
  402f0f:	90                   	nop
  402f10:	90                   	nop
  402f11:	90                   	nop
  402f12:	90                   	nop
  402f13:	90                   	nop
  402f14:	90                   	nop
  402f15:	90                   	nop
  402f16:	90                   	nop
  402f17:	90                   	nop
  402f18:	90                   	nop
  402f19:	90                   	nop
  402f1a:	90                   	nop
  402f1b:	90                   	nop
  402f1c:	90                   	nop
  402f1d:	90                   	nop
  402f1e:	90                   	nop
  402f1f:	90                   	nop
  402f20:	90                   	nop
  402f21:	90                   	nop
  402f22:	90                   	nop
  402f23:	90                   	nop
  402f24:	90                   	nop
  402f25:	90                   	nop
  402f26:	90                   	nop
  402f27:	90                   	nop
  402f28:	90                   	nop
  402f29:	90                   	nop
  402f2a:	90                   	nop
  402f2b:	90                   	nop
  402f2c:	90                   	nop
  402f2d:	90                   	nop
  402f2e:	90                   	nop
  402f2f:	90                   	nop
  402f30:	90                   	nop
  402f31:	90                   	nop
  402f32:	90                   	nop
  402f33:	90                   	nop
  402f34:	90                   	nop
  402f35:	90                   	nop
  402f36:	90                   	nop
  402f37:	90                   	nop
  402f38:	90                   	nop
  402f39:	90                   	nop
  402f3a:	90                   	nop
  402f3b:	90                   	nop
  402f3c:	90                   	nop
  402f3d:	90                   	nop
  402f3e:	90                   	nop
  402f3f:	90                   	nop
  402f40:	90                   	nop
  402f41:	90                   	nop
  402f42:	90                   	nop
  402f43:	90                   	nop
  402f44:	90                   	nop
  402f45:	90                   	nop
  402f46:	90                   	nop
  402f47:	90                   	nop
  402f48:	90                   	nop
  402f49:	90                   	nop
  402f4a:	90                   	nop
  402f4b:	90                   	nop
  402f4c:	90                   	nop
  402f4d:	90                   	nop
  402f4e:	90                   	nop
  402f4f:	90                   	nop
  402f50:	90                   	nop
  402f51:	90                   	nop
  402f52:	90                   	nop
  402f53:	90                   	nop
  402f54:	90                   	nop
  402f55:	90                   	nop
  402f56:	90                   	nop
  402f57:	90                   	nop
  402f58:	90                   	nop
  402f59:	90                   	nop
  402f5a:	90                   	nop
  402f5b:	90                   	nop
  402f5c:	90                   	nop
  402f5d:	90                   	nop
  402f5e:	90                   	nop
  402f5f:	90                   	nop
  402f60:	90                   	nop
  402f61:	90                   	nop
  402f62:	90                   	nop
  402f63:	90                   	nop
  402f64:	90                   	nop
  402f65:	90                   	nop
  402f66:	90                   	nop
  402f67:	90                   	nop
  402f68:	90                   	nop
  402f69:	90                   	nop
  402f6a:	90                   	nop
  402f6b:	90                   	nop
  402f6c:	90                   	nop
  402f6d:	90                   	nop
  402f6e:	90                   	nop
  402f6f:	90                   	nop
  402f70:	90                   	nop
  402f71:	90                   	nop
  402f72:	90                   	nop
  402f73:	90                   	nop
  402f74:	90                   	nop
  402f75:	90                   	nop
  402f76:	90                   	nop
  402f77:	90                   	nop
  402f78:	90                   	nop
  402f79:	90                   	nop
  402f7a:	90                   	nop
  402f7b:	90                   	nop
  402f7c:	90                   	nop
  402f7d:	90                   	nop
  402f7e:	90                   	nop
  402f7f:	90                   	nop
  402f80:	90                   	nop
  402f81:	90                   	nop
  402f82:	90                   	nop
  402f83:	90                   	nop
  402f84:	90                   	nop
  402f85:	90                   	nop
  402f86:	90                   	nop
  402f87:	90                   	nop
  402f88:	90                   	nop
  402f89:	90                   	nop
  402f8a:	90                   	nop
  402f8b:	90                   	nop
  402f8c:	90                   	nop
  402f8d:	90                   	nop
  402f8e:	90                   	nop
  402f8f:	90                   	nop
  402f90:	90                   	nop
  402f91:	90                   	nop
  402f92:	90                   	nop
  402f93:	90                   	nop
  402f94:	90                   	nop
  402f95:	90                   	nop
  402f96:	90                   	nop
  402f97:	90                   	nop
  402f98:	90                   	nop
  402f99:	90                   	nop
  402f9a:	90                   	nop
  402f9b:	90                   	nop
  402f9c:	90                   	nop
  402f9d:	90                   	nop
  402f9e:	90                   	nop
  402f9f:	90                   	nop
  402fa0:	90                   	nop
  402fa1:	90                   	nop
  402fa2:	90                   	nop
  402fa3:	90                   	nop
  402fa4:	90                   	nop
  402fa5:	90                   	nop
  402fa6:	90                   	nop
  402fa7:	90                   	nop
  402fa8:	90                   	nop
  402fa9:	90                   	nop
  402faa:	90                   	nop
  402fab:	90                   	nop
  402fac:	90                   	nop
  402fad:	90                   	nop
  402fae:	90                   	nop
  402faf:	90                   	nop
  402fb0:	90                   	nop
  402fb1:	90                   	nop
  402fb2:	90                   	nop
  402fb3:	90                   	nop
  402fb4:	90                   	nop
  402fb5:	90                   	nop
  402fb6:	90                   	nop
  402fb7:	90                   	nop
  402fb8:	90                   	nop
  402fb9:	90                   	nop
  402fba:	90                   	nop
  402fbb:	90                   	nop
  402fbc:	90                   	nop
  402fbd:	90                   	nop
  402fbe:	90                   	nop
  402fbf:	90                   	nop
  402fc0:	90                   	nop
  402fc1:	90                   	nop
  402fc2:	90                   	nop
  402fc3:	90                   	nop
  402fc4:	90                   	nop
  402fc5:	90                   	nop
  402fc6:	90                   	nop
  402fc7:	90                   	nop
  402fc8:	90                   	nop
  402fc9:	90                   	nop
  402fca:	90                   	nop
  402fcb:	90                   	nop
  402fcc:	90                   	nop
  402fcd:	90                   	nop
  402fce:	90                   	nop
  402fcf:	90                   	nop
  402fd0:	90                   	nop
  402fd1:	90                   	nop
  402fd2:	90                   	nop
  402fd3:	90                   	nop
  402fd4:	90                   	nop
  402fd5:	90                   	nop
  402fd6:	90                   	nop
  402fd7:	90                   	nop
  402fd8:	90                   	nop
  402fd9:	90                   	nop
  402fda:	90                   	nop
  402fdb:	90                   	nop
  402fdc:	90                   	nop
  402fdd:	90                   	nop
  402fde:	90                   	nop
  402fdf:	90                   	nop
  402fe0:	90                   	nop
  402fe1:	90                   	nop
  402fe2:	90                   	nop
  402fe3:	90                   	nop
  402fe4:	90                   	nop
  402fe5:	90                   	nop
  402fe6:	90                   	nop
  402fe7:	90                   	nop
  402fe8:	90                   	nop
  402fe9:	90                   	nop
  402fea:	90                   	nop
  402feb:	90                   	nop
  402fec:	90                   	nop
  402fed:	90                   	nop
  402fee:	90                   	nop
  402fef:	90                   	nop
  402ff0:	90                   	nop
  402ff1:	90                   	nop
  402ff2:	90                   	nop
  402ff3:	90                   	nop
  402ff4:	90                   	nop
  402ff5:	90                   	nop
  402ff6:	90                   	nop
  402ff7:	90                   	nop
  402ff8:	90                   	nop
  402ff9:	90                   	nop
  402ffa:	90                   	nop
  402ffb:	90                   	nop
  402ffc:	90                   	nop
  402ffd:	90                   	nop
  402ffe:	90                   	nop
  402fff:	90                   	nop

0000000000403000 <L0>:
  403000:	e9 fb 0f 00 00       	jmpq   404000 <L64>
  403005:	90                   	nop
  403006:	90                   	nop
  403007:	90                   	nop
  403008:	90                   	nop
  403009:	90                   	nop
  40300a:	90                   	nop
  40300b:	90                   	nop
  40300c:	90                   	nop
  40300d:	90                   	nop
  40300e:	90                   	nop
  40300f:	90                   	nop
  403010:	90                   	nop
  403011:	90                   	nop
  403012:	90                   	nop
  403013:	90                   	nop
  403014:	90                   	nop
  403015:	90                   	nop
  403016:	90                   	nop
  403017:	90                   	nop
  403018:	90                   	nop
  403019:	90                   	nop
  40301a:	90                   	nop
  40301b:	90                   	nop
  40301c:	90                   	nop
  40301d:	90                   	nop
  40301e:	90                   	nop
  40301f:	90                   	nop
  403020:	90                   	nop
  403021:	90                   	nop
  403022:	90                   	nop
  403023:	90                   	nop
  403024:	90                   	nop
  403025:	90                   	nop
  403026:	90                   	nop
  403027:	90                   	nop
  403028:	90                   	nop
  403029:	90                   	nop
  40302a:	90                   	nop
  40302b:	90                   	nop
  40302c:	90                   	nop
  40302d:	90                   	nop
  40302e:	90                   	nop
  40302f:	90                   	nop
  403030:	90                   	nop
  403031:	90                   	nop
  403032:	90                   	nop
  403033:	90                   	nop
  403034:	90                   	nop
  403035:	90                   	nop
  403036:	90                   	nop
  403037:	90                   	nop
  403038:	90                   	nop
  403039:	90                   	nop
  40303a:	90                   	nop
  40303b:	90                   	nop
  40303c:	90                   	nop
  40303d:	90                   	nop
  40303e:	90                   	nop
  40303f:	90                   	nop

0000000000403040 <L1>:
  403040:	e9 fb 0f 00 00       	jmpq   404040 <L65>
  403045:	90                   	nop
  403046:	90                   	nop
  403047:	90                   	nop
  403048:	90                   	nop
  403049:	90                   	nop
  40304a:	90                   	nop
  40304b:	90                   	nop
  40304c:	90                   	nop
  40304d:	90                   	nop
  40304e:	90                   	nop
  40304f:	90                   	nop
  403050:	90                   	nop
  403051:	90                   	nop
  403052:	90                   	nop
  403053:	90                   	nop
  403054:	90                   	nop
  403055:	90                   	nop
  403056:	90                   	nop
  403057:	90                   	nop
  403058:	90                   	nop
  403059:	90                   	nop
  40305a:	90                   	nop
  40305b:	90                   	nop
  40305c:	90                   	nop
  40305d:	90                   	nop
  40305e:	90                   	nop
  40305f:	90                   	nop
  403060:	90                   	nop
  403061:	90                   	nop
  403062:	90                   	nop
  403063:	90                   	nop
  403064:	90                   	nop
  403065:	90                   	nop
  403066:	90                   	nop
  403067:	90                   	nop
  403068:	90                   	nop
  403069:	90                   	nop
  40306a:	90                   	nop
  40306b:	90                   	nop
  40306c:	90                   	nop
  40306d:	90                   	nop
  40306e:	90                   	nop
  40306f:	90                   	nop
  403070:	90                   	nop
  403071:	90                   	nop
  403072:	90                   	nop
  403073:	90                   	nop
  403074:	90                   	nop
  403075:	90                   	nop
  403076:	90                   	nop
  403077:	90                   	nop
  403078:	90                   	nop
  403079:	90                   	nop
  40307a:	90                   	nop
  40307b:	90                   	nop
  40307c:	90                   	nop
  40307d:	90                   	nop
  40307e:	90                   	nop
  40307f:	90                   	nop

0000000000403080 <L2>:
  403080:	e9 fb 0f 00 00       	jmpq   404080 <L66>
  403085:	90                   	nop
  403086:	90                   	nop
  403087:	90                   	nop
  403088:	90                   	nop
  403089:	90                   	nop
  40308a:	90                   	nop
  40308b:	90                   	nop
  40308c:	90                   	nop
  40308d:	90                   	nop
  40308e:	90                   	nop
  40308f:	90                   	nop
  403090:	90                   	nop
  403091:	90                   	nop
  403092:	90                   	nop
  403093:	90                   	nop
  403094:	90                   	nop
  403095:	90                   	nop
  403096:	90                   	nop
  403097:	90                   	nop
  403098:	90                   	nop
  403099:	90                   	nop
  40309a:	90                   	nop
  40309b:	90                   	nop
  40309c:	90                   	nop
  40309d:	90                   	nop
  40309e:	90                   	nop
  40309f:	90                   	nop
  4030a0:	90                   	nop
  4030a1:	90                   	nop
  4030a2:	90                   	nop
  4030a3:	90                   	nop
  4030a4:	90                   	nop
  4030a5:	90                   	nop
  4030a6:	90                   	nop
  4030a7:	90                   	nop
  4030a8:	90                   	nop
  4030a9:	90                   	nop
  4030aa:	90                   	nop
  4030ab:	90                   	nop
  4030ac:	90                   	nop
  4030ad:	90                   	nop
  4030ae:	90                   	nop
  4030af:	90                   	nop
  4030b0:	90                   	nop
  4030b1:	90                   	nop
  4030b2:	90                   	nop
  4030b3:	90                   	nop
  4030b4:	90                   	nop
  4030b5:	90                   	nop
  4030b6:	90                   	nop
  4030b7:	90                   	nop
  4030b8:	90                   	nop
  4030b9:	90                   	nop
  4030ba:	90                   	nop
  4030bb:	90                   	nop
  4030bc:	90                   	nop
  4030bd:	90                   	nop
  4030be:	90                   	nop
  4030bf:	90                   	nop

00000000004030c0 <L3>:
  4030c0:	e9 fb 0f 00 00       	jmpq   4040c0 <L67>
  4030c5:	90                   	nop
  4030c6:	90                   	nop
  4030c7:	90                   	nop
  4030c8:	90                   	nop
  4030c9:	90                   	nop
  4030ca:	90                   	nop
  4030cb:	90                   	nop
  4030cc:	90                   	nop
  4030cd:	90                   	nop
  4030ce:	90                   	nop
  4030cf:	90                   	nop
  4030d0:	90                   	nop
  4030d1:	90                   	nop
  4030d2:	90                   	nop
  4030d3:	90                   	nop
  4030d4:	90                   	nop
  4030d5:	90                   	nop
  4030d6:	90                   	nop
  4030d7:	90                   	nop
  4030d8:	90                   	nop
  4030d9:	90                   	nop
  4030da:	90                   	nop
  4030db:	90                   	nop
  4030dc:	90                   	nop
  4030dd:	90                   	nop
  4030de:	90                   	nop
  4030df:	90                   	nop
  4030e0:	90                   	nop
  4030e1:	90                   	nop
  4030e2:	90                   	nop
  4030e3:	90                   	nop
  4030e4:	90                   	nop
  4030e5:	90                   	nop
  4030e6:	90                   	nop
  4030e7:	90                   	nop
  4030e8:	90                   	nop
  4030e9:	90                   	nop
  4030ea:	90                   	nop
  4030eb:	90                   	nop
  4030ec:	90                   	nop
  4030ed:	90                   	nop
  4030ee:	90                   	nop
  4030ef:	90                   	nop
  4030f0:	90                   	nop
  4030f1:	90                   	nop
  4030f2:	90                   	nop
  4030f3:	90                   	nop
  4030f4:	90                   	nop
  4030f5:	90                   	nop
  4030f6:	90                   	nop
  4030f7:	90                   	nop
  4030f8:	90                   	nop
  4030f9:	90                   	nop
  4030fa:	90                   	nop
  4030fb:	90                   	nop
  4030fc:	90                   	nop
  4030fd:	90                   	nop
  4030fe:	90                   	nop
  4030ff:	90                   	nop

0000000000403100 <L4>:
  403100:	e9 fb 0f 00 00       	jmpq   404100 <L68>
  403105:	90                   	nop
  403106:	90                   	nop
  403107:	90                   	nop
  403108:	90                   	nop
  403109:	90                   	nop
  40310a:	90                   	nop
  40310b:	90                   	nop
  40310c:	90                   	nop
  40310d:	90                   	nop
  40310e:	90                   	nop
  40310f:	90                   	nop
  403110:	90                   	nop
  403111:	90                   	nop
  403112:	90                   	nop
  403113:	90                   	nop
  403114:	90                   	nop
  403115:	90                   	nop
  403116:	90                   	nop
  403117:	90                   	nop
  403118:	90                   	nop
  403119:	90                   	nop
  40311a:	90                   	nop
  40311b:	90                   	nop
  40311c:	90                   	nop
  40311d:	90                   	nop
  40311e:	90                   	nop
  40311f:	90                   	nop
  403120:	90                   	nop
  403121:	90                   	nop
  403122:	90                   	nop
  403123:	90                   	nop
  403124:	90                   	nop
  403125:	90                   	nop
  403126:	90                   	nop
  403127:	90                   	nop
  403128:	90                   	nop
  403129:	90                   	nop
  40312a:	90                   	nop
  40312b:	90                   	nop
  40312c:	90                   	nop
  40312d:	90                   	nop
  40312e:	90                   	nop
  40312f:	90                   	nop
  403130:	90                   	nop
  403131:	90                   	nop
  403132:	90                   	nop
  403133:	90                   	nop
  403134:	90                   	nop
  403135:	90                   	nop
  403136:	90                   	nop
  403137:	90                   	nop
  403138:	90                   	nop
  403139:	90                   	nop
  40313a:	90                   	nop
  40313b:	90                   	nop
  40313c:	90                   	nop
  40313d:	90                   	nop
  40313e:	90                   	nop
  40313f:	90                   	nop

0000000000403140 <L5>:
  403140:	e9 fb 0f 00 00       	jmpq   404140 <L69>
  403145:	90                   	nop
  403146:	90                   	nop
  403147:	90                   	nop
  403148:	90                   	nop
  403149:	90                   	nop
  40314a:	90                   	nop
  40314b:	90                   	nop
  40314c:	90                   	nop
  40314d:	90                   	nop
  40314e:	90                   	nop
  40314f:	90                   	nop
  403150:	90                   	nop
  403151:	90                   	nop
  403152:	90                   	nop
  403153:	90                   	nop
  403154:	90                   	nop
  403155:	90                   	nop
  403156:	90                   	nop
  403157:	90                   	nop
  403158:	90                   	nop
  403159:	90                   	nop
  40315a:	90                   	nop
  40315b:	90                   	nop
  40315c:	90                   	nop
  40315d:	90                   	nop
  40315e:	90                   	nop
  40315f:	90                   	nop
  403160:	90                   	nop
  403161:	90                   	nop
  403162:	90                   	nop
  403163:	90                   	nop
  403164:	90                   	nop
  403165:	90                   	nop
  403166:	90                   	nop
  403167:	90                   	nop
  403168:	90                   	nop
  403169:	90                   	nop
  40316a:	90                   	nop
  40316b:	90                   	nop
  40316c:	90                   	nop
  40316d:	90                   	nop
  40316e:	90                   	nop
  40316f:	90                   	nop
  403170:	90                   	nop
  403171:	90                   	nop
  403172:	90                   	nop
  403173:	90                   	nop
  403174:	90                   	nop
  403175:	90                   	nop
  403176:	90                   	nop
  403177:	90                   	nop
  403178:	90                   	nop
  403179:	90                   	nop
  40317a:	90                   	nop
  40317b:	90                   	nop
  40317c:	90                   	nop
  40317d:	90                   	nop
  40317e:	90                   	nop
  40317f:	90                   	nop

0000000000403180 <L6>:
  403180:	e9 fb 0f 00 00       	jmpq   404180 <L70>
  403185:	90                   	nop
  403186:	90                   	nop
  403187:	90                   	nop
  403188:	90                   	nop
  403189:	90                   	nop
  40318a:	90                   	nop
  40318b:	90                   	nop
  40318c:	90                   	nop
  40318d:	90                   	nop
  40318e:	90                   	nop
  40318f:	90                   	nop
  403190:	90                   	nop
  403191:	90                   	nop
  403192:	90                   	nop
  403193:	90                   	nop
  403194:	90                   	nop
  403195:	90                   	nop
  403196:	90                   	nop
  403197:	90                   	nop
  403198:	90                   	nop
  403199:	90                   	nop
  40319a:	90                   	nop
  40319b:	90                   	nop
  40319c:	90                   	nop
  40319d:	90                   	nop
  40319e:	90                   	nop
  40319f:	90                   	nop
  4031a0:	90                   	nop
  4031a1:	90                   	nop
  4031a2:	90                   	nop
  4031a3:	90                   	nop
  4031a4:	90                   	nop
  4031a5:	90                   	nop
  4031a6:	90                   	nop
  4031a7:	90                   	nop
  4031a8:	90                   	nop
  4031a9:	90                   	nop
  4031aa:	90                   	nop
  4031ab:	90                   	nop
  4031ac:	90                   	nop
  4031ad:	90                   	nop
  4031ae:	90                   	nop
  4031af:	90                   	nop
  4031b0:	90                   	nop
  4031b1:	90                   	nop
  4031b2:	90                   	nop
  4031b3:	90                   	nop
  4031b4:	90                   	nop
  4031b5:	90                   	nop
  4031b6:	90                   	nop
  4031b7:	90                   	nop
  4031b8:	90                   	nop
  4031b9:	90                   	nop
  4031ba:	90                   	nop
  4031bb:	90                   	nop
  4031bc:	90                   	nop
  4031bd:	90                   	nop
  4031be:	90                   	nop
  4031bf:	90                   	nop

00000000004031c0 <L7>:
  4031c0:	e9 fb 0f 00 00       	jmpq   4041c0 <L71>
  4031c5:	90                   	nop
  4031c6:	90                   	nop
  4031c7:	90                   	nop
  4031c8:	90                   	nop
  4031c9:	90                   	nop
  4031ca:	90                   	nop
  4031cb:	90                   	nop
  4031cc:	90                   	nop
  4031cd:	90                   	nop
  4031ce:	90                   	nop
  4031cf:	90                   	nop
  4031d0:	90                   	nop
  4031d1:	90                   	nop
  4031d2:	90                   	nop
  4031d3:	90                   	nop
  4031d4:	90                   	nop
  4031d5:	90                   	nop
  4031d6:	90                   	nop
  4031d7:	90                   	nop
  4031d8:	90                   	nop
  4031d9:	90                   	nop
  4031da:	90                   	nop
  4031db:	90                   	nop
  4031dc:	90                   	nop
  4031dd:	90                   	nop
  4031de:	90                   	nop
  4031df:	90                   	nop
  4031e0:	90                   	nop
  4031e1:	90                   	nop
  4031e2:	90                   	nop
  4031e3:	90                   	nop
  4031e4:	90                   	nop
  4031e5:	90                   	nop
  4031e6:	90                   	nop
  4031e7:	90                   	nop
  4031e8:	90                   	nop
  4031e9:	90                   	nop
  4031ea:	90                   	nop
  4031eb:	90                   	nop
  4031ec:	90                   	nop
  4031ed:	90                   	nop
  4031ee:	90                   	nop
  4031ef:	90                   	nop
  4031f0:	90                   	nop
  4031f1:	90                   	nop
  4031f2:	90                   	nop
  4031f3:	90                   	nop
  4031f4:	90                   	nop
  4031f5:	90                   	nop
  4031f6:	90                   	nop
  4031f7:	90                   	nop
  4031f8:	90                   	nop
  4031f9:	90                   	nop
  4031fa:	90                   	nop
  4031fb:	90                   	nop
  4031fc:	90                   	nop
  4031fd:	90                   	nop
  4031fe:	90                   	nop
  4031ff:	90                   	nop

0000000000403200 <L8>:
  403200:	e9 fb 0f 00 00       	jmpq   404200 <L72>
  403205:	90                   	nop
  403206:	90                   	nop
  403207:	90                   	nop
  403208:	90                   	nop
  403209:	90                   	nop
  40320a:	90                   	nop
  40320b:	90                   	nop
  40320c:	90                   	nop
  40320d:	90                   	nop
  40320e:	90                   	nop
  40320f:	90                   	nop
  403210:	90                   	nop
  403211:	90                   	nop
  403212:	90                   	nop
  403213:	90                   	nop
  403214:	90                   	nop
  403215:	90                   	nop
  403216:	90                   	nop
  403217:	90                   	nop
  403218:	90                   	nop
  403219:	90                   	nop
  40321a:	90                   	nop
  40321b:	90                   	nop
  40321c:	90                   	nop
  40321d:	90                   	nop
  40321e:	90                   	nop
  40321f:	90                   	nop
  403220:	90                   	nop
  403221:	90                   	nop
  403222:	90                   	nop
  403223:	90                   	nop
  403224:	90                   	nop
  403225:	90                   	nop
  403226:	90                   	nop
  403227:	90                   	nop
  403228:	90                   	nop
  403229:	90                   	nop
  40322a:	90                   	nop
  40322b:	90                   	nop
  40322c:	90                   	nop
  40322d:	90                   	nop
  40322e:	90                   	nop
  40322f:	90                   	nop
  403230:	90                   	nop
  403231:	90                   	nop
  403232:	90                   	nop
  403233:	90                   	nop
  403234:	90                   	nop
  403235:	90                   	nop
  403236:	90                   	nop
  403237:	90                   	nop
  403238:	90                   	nop
  403239:	90                   	nop
  40323a:	90                   	nop
  40323b:	90                   	nop
  40323c:	90                   	nop
  40323d:	90                   	nop
  40323e:	90                   	nop
  40323f:	90                   	nop

0000000000403240 <L9>:
  403240:	e9 fb 0f 00 00       	jmpq   404240 <L73>
  403245:	90                   	nop
  403246:	90                   	nop
  403247:	90                   	nop
  403248:	90                   	nop
  403249:	90                   	nop
  40324a:	90                   	nop
  40324b:	90                   	nop
  40324c:	90                   	nop
  40324d:	90                   	nop
  40324e:	90                   	nop
  40324f:	90                   	nop
  403250:	90                   	nop
  403251:	90                   	nop
  403252:	90                   	nop
  403253:	90                   	nop
  403254:	90                   	nop
  403255:	90                   	nop
  403256:	90                   	nop
  403257:	90                   	nop
  403258:	90                   	nop
  403259:	90                   	nop
  40325a:	90                   	nop
  40325b:	90                   	nop
  40325c:	90                   	nop
  40325d:	90                   	nop
  40325e:	90                   	nop
  40325f:	90                   	nop
  403260:	90                   	nop
  403261:	90                   	nop
  403262:	90                   	nop
  403263:	90                   	nop
  403264:	90                   	nop
  403265:	90                   	nop
  403266:	90                   	nop
  403267:	90                   	nop
  403268:	90                   	nop
  403269:	90                   	nop
  40326a:	90                   	nop
  40326b:	90                   	nop
  40326c:	90                   	nop
  40326d:	90                   	nop
  40326e:	90                   	nop
  40326f:	90                   	nop
  403270:	90                   	nop
  403271:	90                   	nop
  403272:	90                   	nop
  403273:	90                   	nop
  403274:	90                   	nop
  403275:	90                   	nop
  403276:	90                   	nop
  403277:	90                   	nop
  403278:	90                   	nop
  403279:	90                   	nop
  40327a:	90                   	nop
  40327b:	90                   	nop
  40327c:	90                   	nop
  40327d:	90                   	nop
  40327e:	90                   	nop
  40327f:	90                   	nop

0000000000403280 <L10>:
  403280:	e9 fb 0f 00 00       	jmpq   404280 <L74>
  403285:	90                   	nop
  403286:	90                   	nop
  403287:	90                   	nop
  403288:	90                   	nop
  403289:	90                   	nop
  40328a:	90                   	nop
  40328b:	90                   	nop
  40328c:	90                   	nop
  40328d:	90                   	nop
  40328e:	90                   	nop
  40328f:	90                   	nop
  403290:	90                   	nop
  403291:	90                   	nop
  403292:	90                   	nop
  403293:	90                   	nop
  403294:	90                   	nop
  403295:	90                   	nop
  403296:	90                   	nop
  403297:	90                   	nop
  403298:	90                   	nop
  403299:	90                   	nop
  40329a:	90                   	nop
  40329b:	90                   	nop
  40329c:	90                   	nop
  40329d:	90                   	nop
  40329e:	90                   	nop
  40329f:	90                   	nop
  4032a0:	90                   	nop
  4032a1:	90                   	nop
  4032a2:	90                   	nop
  4032a3:	90                   	nop
  4032a4:	90                   	nop
  4032a5:	90                   	nop
  4032a6:	90                   	nop
  4032a7:	90                   	nop
  4032a8:	90                   	nop
  4032a9:	90                   	nop
  4032aa:	90                   	nop
  4032ab:	90                   	nop
  4032ac:	90                   	nop
  4032ad:	90                   	nop
  4032ae:	90                   	nop
  4032af:	90                   	nop
  4032b0:	90                   	nop
  4032b1:	90                   	nop
  4032b2:	90                   	nop
  4032b3:	90                   	nop
  4032b4:	90                   	nop
  4032b5:	90                   	nop
  4032b6:	90                   	nop
  4032b7:	90                   	nop
  4032b8:	90                   	nop
  4032b9:	90                   	nop
  4032ba:	90                   	nop
  4032bb:	90                   	nop
  4032bc:	90                   	nop
  4032bd:	90                   	nop
  4032be:	90                   	nop
  4032bf:	90                   	nop

00000000004032c0 <L11>:
  4032c0:	e9 fb 0f 00 00       	jmpq   4042c0 <L75>
  4032c5:	90                   	nop
  4032c6:	90                   	nop
  4032c7:	90                   	nop
  4032c8:	90                   	nop
  4032c9:	90                   	nop
  4032ca:	90                   	nop
  4032cb:	90                   	nop
  4032cc:	90                   	nop
  4032cd:	90                   	nop
  4032ce:	90                   	nop
  4032cf:	90                   	nop
  4032d0:	90                   	nop
  4032d1:	90                   	nop
  4032d2:	90                   	nop
  4032d3:	90                   	nop
  4032d4:	90                   	nop
  4032d5:	90                   	nop
  4032d6:	90                   	nop
  4032d7:	90                   	nop
  4032d8:	90                   	nop
  4032d9:	90                   	nop
  4032da:	90                   	nop
  4032db:	90                   	nop
  4032dc:	90                   	nop
  4032dd:	90                   	nop
  4032de:	90                   	nop
  4032df:	90                   	nop
  4032e0:	90                   	nop
  4032e1:	90                   	nop
  4032e2:	90                   	nop
  4032e3:	90                   	nop
  4032e4:	90                   	nop
  4032e5:	90                   	nop
  4032e6:	90                   	nop
  4032e7:	90                   	nop
  4032e8:	90                   	nop
  4032e9:	90                   	nop
  4032ea:	90                   	nop
  4032eb:	90                   	nop
  4032ec:	90                   	nop
  4032ed:	90                   	nop
  4032ee:	90                   	nop
  4032ef:	90                   	nop
  4032f0:	90                   	nop
  4032f1:	90                   	nop
  4032f2:	90                   	nop
  4032f3:	90                   	nop
  4032f4:	90                   	nop
  4032f5:	90                   	nop
  4032f6:	90                   	nop
  4032f7:	90                   	nop
  4032f8:	90                   	nop
  4032f9:	90                   	nop
  4032fa:	90                   	nop
  4032fb:	90                   	nop
  4032fc:	90                   	nop
  4032fd:	90                   	nop
  4032fe:	90                   	nop
  4032ff:	90                   	nop

0000000000403300 <L12>:
  403300:	e9 fb 0f 00 00       	jmpq   404300 <L76>
  403305:	90                   	nop
  403306:	90                   	nop
  403307:	90                   	nop
  403308:	90                   	nop
  403309:	90                   	nop
  40330a:	90                   	nop
  40330b:	90                   	nop
  40330c:	90                   	nop
  40330d:	90                   	nop
  40330e:	90                   	nop
  40330f:	90                   	nop
  403310:	90                   	nop
  403311:	90                   	nop
  403312:	90                   	nop
  403313:	90                   	nop
  403314:	90                   	nop
  403315:	90                   	nop
  403316:	90                   	nop
  403317:	90                   	nop
  403318:	90                   	nop
  403319:	90                   	nop
  40331a:	90                   	nop
  40331b:	90                   	nop
  40331c:	90                   	nop
  40331d:	90                   	nop
  40331e:	90                   	nop
  40331f:	90                   	nop
  403320:	90                   	nop
  403321:	90                   	nop
  403322:	90                   	nop
  403323:	90                   	nop
  403324:	90                   	nop
  403325:	90                   	nop
  403326:	90                   	nop
  403327:	90                   	nop
  403328:	90                   	nop
  403329:	90                   	nop
  40332a:	90                   	nop
  40332b:	90                   	nop
  40332c:	90                   	nop
  40332d:	90                   	nop
  40332e:	90                   	nop
  40332f:	90                   	nop
  403330:	90                   	nop
  403331:	90                   	nop
  403332:	90                   	nop
  403333:	90                   	nop
  403334:	90                   	nop
  403335:	90                   	nop
  403336:	90                   	nop
  403337:	90                   	nop
  403338:	90                   	nop
  403339:	90                   	nop
  40333a:	90                   	nop
  40333b:	90                   	nop
  40333c:	90                   	nop
  40333d:	90                   	nop
  40333e:	90                   	nop
  40333f:	90                   	nop

0000000000403340 <L13>:
  403340:	e9 fb 0f 00 00       	jmpq   404340 <L77>
  403345:	90                   	nop
  403346:	90                   	nop
  403347:	90                   	nop
  403348:	90                   	nop
  403349:	90                   	nop
  40334a:	90                   	nop
  40334b:	90                   	nop
  40334c:	90                   	nop
  40334d:	90                   	nop
  40334e:	90                   	nop
  40334f:	90                   	nop
  403350:	90                   	nop
  403351:	90                   	nop
  403352:	90                   	nop
  403353:	90                   	nop
  403354:	90                   	nop
  403355:	90                   	nop
  403356:	90                   	nop
  403357:	90                   	nop
  403358:	90                   	nop
  403359:	90                   	nop
  40335a:	90                   	nop
  40335b:	90                   	nop
  40335c:	90                   	nop
  40335d:	90                   	nop
  40335e:	90                   	nop
  40335f:	90                   	nop
  403360:	90                   	nop
  403361:	90                   	nop
  403362:	90                   	nop
  403363:	90                   	nop
  403364:	90                   	nop
  403365:	90                   	nop
  403366:	90                   	nop
  403367:	90                   	nop
  403368:	90                   	nop
  403369:	90                   	nop
  40336a:	90                   	nop
  40336b:	90                   	nop
  40336c:	90                   	nop
  40336d:	90                   	nop
  40336e:	90                   	nop
  40336f:	90                   	nop
  403370:	90                   	nop
  403371:	90                   	nop
  403372:	90                   	nop
  403373:	90                   	nop
  403374:	90                   	nop
  403375:	90                   	nop
  403376:	90                   	nop
  403377:	90                   	nop
  403378:	90                   	nop
  403379:	90                   	nop
  40337a:	90                   	nop
  40337b:	90                   	nop
  40337c:	90                   	nop
  40337d:	90                   	nop
  40337e:	90                   	nop
  40337f:	90                   	nop

0000000000403380 <L14>:
  403380:	e9 fb 0f 00 00       	jmpq   404380 <L78>
  403385:	90                   	nop
  403386:	90                   	nop
  403387:	90                   	nop
  403388:	90                   	nop
  403389:	90                   	nop
  40338a:	90                   	nop
  40338b:	90                   	nop
  40338c:	90                   	nop
  40338d:	90                   	nop
  40338e:	90                   	nop
  40338f:	90                   	nop
  403390:	90                   	nop
  403391:	90                   	nop
  403392:	90                   	nop
  403393:	90                   	nop
  403394:	90                   	nop
  403395:	90                   	nop
  403396:	90                   	nop
  403397:	90                   	nop
  403398:	90                   	nop
  403399:	90                   	nop
  40339a:	90                   	nop
  40339b:	90                   	nop
  40339c:	90                   	nop
  40339d:	90                   	nop
  40339e:	90                   	nop
  40339f:	90                   	nop
  4033a0:	90                   	nop
  4033a1:	90                   	nop
  4033a2:	90                   	nop
  4033a3:	90                   	nop
  4033a4:	90                   	nop
  4033a5:	90                   	nop
  4033a6:	90                   	nop
  4033a7:	90                   	nop
  4033a8:	90                   	nop
  4033a9:	90                   	nop
  4033aa:	90                   	nop
  4033ab:	90                   	nop
  4033ac:	90                   	nop
  4033ad:	90                   	nop
  4033ae:	90                   	nop
  4033af:	90                   	nop
  4033b0:	90                   	nop
  4033b1:	90                   	nop
  4033b2:	90                   	nop
  4033b3:	90                   	nop
  4033b4:	90                   	nop
  4033b5:	90                   	nop
  4033b6:	90                   	nop
  4033b7:	90                   	nop
  4033b8:	90                   	nop
  4033b9:	90                   	nop
  4033ba:	90                   	nop
  4033bb:	90                   	nop
  4033bc:	90                   	nop
  4033bd:	90                   	nop
  4033be:	90                   	nop
  4033bf:	90                   	nop

00000000004033c0 <L15>:
  4033c0:	e9 fb 0f 00 00       	jmpq   4043c0 <L79>
  4033c5:	90                   	nop
  4033c6:	90                   	nop
  4033c7:	90                   	nop
  4033c8:	90                   	nop
  4033c9:	90                   	nop
  4033ca:	90                   	nop
  4033cb:	90                   	nop
  4033cc:	90                   	nop
  4033cd:	90                   	nop
  4033ce:	90                   	nop
  4033cf:	90                   	nop
  4033d0:	90                   	nop
  4033d1:	90                   	nop
  4033d2:	90                   	nop
  4033d3:	90                   	nop
  4033d4:	90                   	nop
  4033d5:	90                   	nop
  4033d6:	90                   	nop
  4033d7:	90                   	nop
  4033d8:	90                   	nop
  4033d9:	90                   	nop
  4033da:	90                   	nop
  4033db:	90                   	nop
  4033dc:	90                   	nop
  4033dd:	90                   	nop
  4033de:	90                   	nop
  4033df:	90                   	nop
  4033e0:	90                   	nop
  4033e1:	90                   	nop
  4033e2:	90                   	nop
  4033e3:	90                   	nop
  4033e4:	90                   	nop
  4033e5:	90                   	nop
  4033e6:	90                   	nop
  4033e7:	90                   	nop
  4033e8:	90                   	nop
  4033e9:	90                   	nop
  4033ea:	90                   	nop
  4033eb:	90                   	nop
  4033ec:	90                   	nop
  4033ed:	90                   	nop
  4033ee:	90                   	nop
  4033ef:	90                   	nop
  4033f0:	90                   	nop
  4033f1:	90                   	nop
  4033f2:	90                   	nop
  4033f3:	90                   	nop
  4033f4:	90                   	nop
  4033f5:	90                   	nop
  4033f6:	90                   	nop
  4033f7:	90                   	nop
  4033f8:	90                   	nop
  4033f9:	90                   	nop
  4033fa:	90                   	nop
  4033fb:	90                   	nop
  4033fc:	90                   	nop
  4033fd:	90                   	nop
  4033fe:	90                   	nop
  4033ff:	90                   	nop

0000000000403400 <L16>:
  403400:	e9 fb 0f 00 00       	jmpq   404400 <L80>
  403405:	90                   	nop
  403406:	90                   	nop
  403407:	90                   	nop
  403408:	90                   	nop
  403409:	90                   	nop
  40340a:	90                   	nop
  40340b:	90                   	nop
  40340c:	90                   	nop
  40340d:	90                   	nop
  40340e:	90                   	nop
  40340f:	90                   	nop
  403410:	90                   	nop
  403411:	90                   	nop
  403412:	90                   	nop
  403413:	90                   	nop
  403414:	90                   	nop
  403415:	90                   	nop
  403416:	90                   	nop
  403417:	90                   	nop
  403418:	90                   	nop
  403419:	90                   	nop
  40341a:	90                   	nop
  40341b:	90                   	nop
  40341c:	90                   	nop
  40341d:	90                   	nop
  40341e:	90                   	nop
  40341f:	90                   	nop
  403420:	90                   	nop
  403421:	90                   	nop
  403422:	90                   	nop
  403423:	90                   	nop
  403424:	90                   	nop
  403425:	90                   	nop
  403426:	90                   	nop
  403427:	90                   	nop
  403428:	90                   	nop
  403429:	90                   	nop
  40342a:	90                   	nop
  40342b:	90                   	nop
  40342c:	90                   	nop
  40342d:	90                   	nop
  40342e:	90                   	nop
  40342f:	90                   	nop
  403430:	90                   	nop
  403431:	90                   	nop
  403432:	90                   	nop
  403433:	90                   	nop
  403434:	90                   	nop
  403435:	90                   	nop
  403436:	90                   	nop
  403437:	90                   	nop
  403438:	90                   	nop
  403439:	90                   	nop
  40343a:	90                   	nop
  40343b:	90                   	nop
  40343c:	90                   	nop
  40343d:	90                   	nop
  40343e:	90                   	nop
  40343f:	90                   	nop

0000000000403440 <L17>:
  403440:	e9 fb 0f 00 00       	jmpq   404440 <L81>
  403445:	90                   	nop
  403446:	90                   	nop
  403447:	90                   	nop
  403448:	90                   	nop
  403449:	90                   	nop
  40344a:	90                   	nop
  40344b:	90                   	nop
  40344c:	90                   	nop
  40344d:	90                   	nop
  40344e:	90                   	nop
  40344f:	90                   	nop
  403450:	90                   	nop
  403451:	90                   	nop
  403452:	90                   	nop
  403453:	90                   	nop
  403454:	90                   	nop
  403455:	90                   	nop
  403456:	90                   	nop
  403457:	90                   	nop
  403458:	90                   	nop
  403459:	90                   	nop
  40345a:	90                   	nop
  40345b:	90                   	nop
  40345c:	90                   	nop
  40345d:	90                   	nop
  40345e:	90                   	nop
  40345f:	90                   	nop
  403460:	90                   	nop
  403461:	90                   	nop
  403462:	90                   	nop
  403463:	90                   	nop
  403464:	90                   	nop
  403465:	90                   	nop
  403466:	90                   	nop
  403467:	90                   	nop
  403468:	90                   	nop
  403469:	90                   	nop
  40346a:	90                   	nop
  40346b:	90                   	nop
  40346c:	90                   	nop
  40346d:	90                   	nop
  40346e:	90                   	nop
  40346f:	90                   	nop
  403470:	90                   	nop
  403471:	90                   	nop
  403472:	90                   	nop
  403473:	90                   	nop
  403474:	90                   	nop
  403475:	90                   	nop
  403476:	90                   	nop
  403477:	90                   	nop
  403478:	90                   	nop
  403479:	90                   	nop
  40347a:	90                   	nop
  40347b:	90                   	nop
  40347c:	90                   	nop
  40347d:	90                   	nop
  40347e:	90                   	nop
  40347f:	90                   	nop

0000000000403480 <L18>:
  403480:	e9 fb 0f 00 00       	jmpq   404480 <L82>
  403485:	90                   	nop
  403486:	90                   	nop
  403487:	90                   	nop
  403488:	90                   	nop
  403489:	90                   	nop
  40348a:	90                   	nop
  40348b:	90                   	nop
  40348c:	90                   	nop
  40348d:	90                   	nop
  40348e:	90                   	nop
  40348f:	90                   	nop
  403490:	90                   	nop
  403491:	90                   	nop
  403492:	90                   	nop
  403493:	90                   	nop
  403494:	90                   	nop
  403495:	90                   	nop
  403496:	90                   	nop
  403497:	90                   	nop
  403498:	90                   	nop
  403499:	90                   	nop
  40349a:	90                   	nop
  40349b:	90                   	nop
  40349c:	90                   	nop
  40349d:	90                   	nop
  40349e:	90                   	nop
  40349f:	90                   	nop
  4034a0:	90                   	nop
  4034a1:	90                   	nop
  4034a2:	90                   	nop
  4034a3:	90                   	nop
  4034a4:	90                   	nop
  4034a5:	90                   	nop
  4034a6:	90                   	nop
  4034a7:	90                   	nop
  4034a8:	90                   	nop
  4034a9:	90                   	nop
  4034aa:	90                   	nop
  4034ab:	90                   	nop
  4034ac:	90                   	nop
  4034ad:	90                   	nop
  4034ae:	90                   	nop
  4034af:	90                   	nop
  4034b0:	90                   	nop
  4034b1:	90                   	nop
  4034b2:	90                   	nop
  4034b3:	90                   	nop
  4034b4:	90                   	nop
  4034b5:	90                   	nop
  4034b6:	90                   	nop
  4034b7:	90                   	nop
  4034b8:	90                   	nop
  4034b9:	90                   	nop
  4034ba:	90                   	nop
  4034bb:	90                   	nop
  4034bc:	90                   	nop
  4034bd:	90                   	nop
  4034be:	90                   	nop
  4034bf:	90                   	nop

00000000004034c0 <L19>:
  4034c0:	e9 fb 0f 00 00       	jmpq   4044c0 <L83>
  4034c5:	90                   	nop
  4034c6:	90                   	nop
  4034c7:	90                   	nop
  4034c8:	90                   	nop
  4034c9:	90                   	nop
  4034ca:	90                   	nop
  4034cb:	90                   	nop
  4034cc:	90                   	nop
  4034cd:	90                   	nop
  4034ce:	90                   	nop
  4034cf:	90                   	nop
  4034d0:	90                   	nop
  4034d1:	90                   	nop
  4034d2:	90                   	nop
  4034d3:	90                   	nop
  4034d4:	90                   	nop
  4034d5:	90                   	nop
  4034d6:	90                   	nop
  4034d7:	90                   	nop
  4034d8:	90                   	nop
  4034d9:	90                   	nop
  4034da:	90                   	nop
  4034db:	90                   	nop
  4034dc:	90                   	nop
  4034dd:	90                   	nop
  4034de:	90                   	nop
  4034df:	90                   	nop
  4034e0:	90                   	nop
  4034e1:	90                   	nop
  4034e2:	90                   	nop
  4034e3:	90                   	nop
  4034e4:	90                   	nop
  4034e5:	90                   	nop
  4034e6:	90                   	nop
  4034e7:	90                   	nop
  4034e8:	90                   	nop
  4034e9:	90                   	nop
  4034ea:	90                   	nop
  4034eb:	90                   	nop
  4034ec:	90                   	nop
  4034ed:	90                   	nop
  4034ee:	90                   	nop
  4034ef:	90                   	nop
  4034f0:	90                   	nop
  4034f1:	90                   	nop
  4034f2:	90                   	nop
  4034f3:	90                   	nop
  4034f4:	90                   	nop
  4034f5:	90                   	nop
  4034f6:	90                   	nop
  4034f7:	90                   	nop
  4034f8:	90                   	nop
  4034f9:	90                   	nop
  4034fa:	90                   	nop
  4034fb:	90                   	nop
  4034fc:	90                   	nop
  4034fd:	90                   	nop
  4034fe:	90                   	nop
  4034ff:	90                   	nop

0000000000403500 <L20>:
  403500:	e9 fb 0f 00 00       	jmpq   404500 <L84>
  403505:	90                   	nop
  403506:	90                   	nop
  403507:	90                   	nop
  403508:	90                   	nop
  403509:	90                   	nop
  40350a:	90                   	nop
  40350b:	90                   	nop
  40350c:	90                   	nop
  40350d:	90                   	nop
  40350e:	90                   	nop
  40350f:	90                   	nop
  403510:	90                   	nop
  403511:	90                   	nop
  403512:	90                   	nop
  403513:	90                   	nop
  403514:	90                   	nop
  403515:	90                   	nop
  403516:	90                   	nop
  403517:	90                   	nop
  403518:	90                   	nop
  403519:	90                   	nop
  40351a:	90                   	nop
  40351b:	90                   	nop
  40351c:	90                   	nop
  40351d:	90                   	nop
  40351e:	90                   	nop
  40351f:	90                   	nop
  403520:	90                   	nop
  403521:	90                   	nop
  403522:	90                   	nop
  403523:	90                   	nop
  403524:	90                   	nop
  403525:	90                   	nop
  403526:	90                   	nop
  403527:	90                   	nop
  403528:	90                   	nop
  403529:	90                   	nop
  40352a:	90                   	nop
  40352b:	90                   	nop
  40352c:	90                   	nop
  40352d:	90                   	nop
  40352e:	90                   	nop
  40352f:	90                   	nop
  403530:	90                   	nop
  403531:	90                   	nop
  403532:	90                   	nop
  403533:	90                   	nop
  403534:	90                   	nop
  403535:	90                   	nop
  403536:	90                   	nop
  403537:	90                   	nop
  403538:	90                   	nop
  403539:	90                   	nop
  40353a:	90                   	nop
  40353b:	90                   	nop
  40353c:	90                   	nop
  40353d:	90                   	nop
  40353e:	90                   	nop
  40353f:	90                   	nop

0000000000403540 <L21>:
  403540:	e9 fb 0f 00 00       	jmpq   404540 <L85>
  403545:	90                   	nop
  403546:	90                   	nop
  403547:	90                   	nop
  403548:	90                   	nop
  403549:	90                   	nop
  40354a:	90                   	nop
  40354b:	90                   	nop
  40354c:	90                   	nop
  40354d:	90                   	nop
  40354e:	90                   	nop
  40354f:	90                   	nop
  403550:	90                   	nop
  403551:	90                   	nop
  403552:	90                   	nop
  403553:	90                   	nop
  403554:	90                   	nop
  403555:	90                   	nop
  403556:	90                   	nop
  403557:	90                   	nop
  403558:	90                   	nop
  403559:	90                   	nop
  40355a:	90                   	nop
  40355b:	90                   	nop
  40355c:	90                   	nop
  40355d:	90                   	nop
  40355e:	90                   	nop
  40355f:	90                   	nop
  403560:	90                   	nop
  403561:	90                   	nop
  403562:	90                   	nop
  403563:	90                   	nop
  403564:	90                   	nop
  403565:	90                   	nop
  403566:	90                   	nop
  403567:	90                   	nop
  403568:	90                   	nop
  403569:	90                   	nop
  40356a:	90                   	nop
  40356b:	90                   	nop
  40356c:	90                   	nop
  40356d:	90                   	nop
  40356e:	90                   	nop
  40356f:	90                   	nop
  403570:	90                   	nop
  403571:	90                   	nop
  403572:	90                   	nop
  403573:	90                   	nop
  403574:	90                   	nop
  403575:	90                   	nop
  403576:	90                   	nop
  403577:	90                   	nop
  403578:	90                   	nop
  403579:	90                   	nop
  40357a:	90                   	nop
  40357b:	90                   	nop
  40357c:	90                   	nop
  40357d:	90                   	nop
  40357e:	90                   	nop
  40357f:	90                   	nop

0000000000403580 <L22>:
  403580:	e9 fb 0f 00 00       	jmpq   404580 <L86>
  403585:	90                   	nop
  403586:	90                   	nop
  403587:	90                   	nop
  403588:	90                   	nop
  403589:	90                   	nop
  40358a:	90                   	nop
  40358b:	90                   	nop
  40358c:	90                   	nop
  40358d:	90                   	nop
  40358e:	90                   	nop
  40358f:	90                   	nop
  403590:	90                   	nop
  403591:	90                   	nop
  403592:	90                   	nop
  403593:	90                   	nop
  403594:	90                   	nop
  403595:	90                   	nop
  403596:	90                   	nop
  403597:	90                   	nop
  403598:	90                   	nop
  403599:	90                   	nop
  40359a:	90                   	nop
  40359b:	90                   	nop
  40359c:	90                   	nop
  40359d:	90                   	nop
  40359e:	90                   	nop
  40359f:	90                   	nop
  4035a0:	90                   	nop
  4035a1:	90                   	nop
  4035a2:	90                   	nop
  4035a3:	90                   	nop
  4035a4:	90                   	nop
  4035a5:	90                   	nop
  4035a6:	90                   	nop
  4035a7:	90                   	nop
  4035a8:	90                   	nop
  4035a9:	90                   	nop
  4035aa:	90                   	nop
  4035ab:	90                   	nop
  4035ac:	90                   	nop
  4035ad:	90                   	nop
  4035ae:	90                   	nop
  4035af:	90                   	nop
  4035b0:	90                   	nop
  4035b1:	90                   	nop
  4035b2:	90                   	nop
  4035b3:	90                   	nop
  4035b4:	90                   	nop
  4035b5:	90                   	nop
  4035b6:	90                   	nop
  4035b7:	90                   	nop
  4035b8:	90                   	nop
  4035b9:	90                   	nop
  4035ba:	90                   	nop
  4035bb:	90                   	nop
  4035bc:	90                   	nop
  4035bd:	90                   	nop
  4035be:	90                   	nop
  4035bf:	90                   	nop

00000000004035c0 <L23>:
  4035c0:	e9 fb 0f 00 00       	jmpq   4045c0 <L87>
  4035c5:	90                   	nop
  4035c6:	90                   	nop
  4035c7:	90                   	nop
  4035c8:	90                   	nop
  4035c9:	90                   	nop
  4035ca:	90                   	nop
  4035cb:	90                   	nop
  4035cc:	90                   	nop
  4035cd:	90                   	nop
  4035ce:	90                   	nop
  4035cf:	90                   	nop
  4035d0:	90                   	nop
  4035d1:	90                   	nop
  4035d2:	90                   	nop
  4035d3:	90                   	nop
  4035d4:	90                   	nop
  4035d5:	90                   	nop
  4035d6:	90                   	nop
  4035d7:	90                   	nop
  4035d8:	90                   	nop
  4035d9:	90                   	nop
  4035da:	90                   	nop
  4035db:	90                   	nop
  4035dc:	90                   	nop
  4035dd:	90                   	nop
  4035de:	90                   	nop
  4035df:	90                   	nop
  4035e0:	90                   	nop
  4035e1:	90                   	nop
  4035e2:	90                   	nop
  4035e3:	90                   	nop
  4035e4:	90                   	nop
  4035e5:	90                   	nop
  4035e6:	90                   	nop
  4035e7:	90                   	nop
  4035e8:	90                   	nop
  4035e9:	90                   	nop
  4035ea:	90                   	nop
  4035eb:	90                   	nop
  4035ec:	90                   	nop
  4035ed:	90                   	nop
  4035ee:	90                   	nop
  4035ef:	90                   	nop
  4035f0:	90                   	nop
  4035f1:	90                   	nop
  4035f2:	90                   	nop
  4035f3:	90                   	nop
  4035f4:	90                   	nop
  4035f5:	90                   	nop
  4035f6:	90                   	nop
  4035f7:	90                   	nop
  4035f8:	90                   	nop
  4035f9:	90                   	nop
  4035fa:	90                   	nop
  4035fb:	90                   	nop
  4035fc:	90                   	nop
  4035fd:	90                   	nop
  4035fe:	90                   	nop
  4035ff:	90                   	nop

0000000000403600 <L24>:
  403600:	e9 fb 0f 00 00       	jmpq   404600 <L88>
  403605:	90                   	nop
  403606:	90                   	nop
  403607:	90                   	nop
  403608:	90                   	nop
  403609:	90                   	nop
  40360a:	90                   	nop
  40360b:	90                   	nop
  40360c:	90                   	nop
  40360d:	90                   	nop
  40360e:	90                   	nop
  40360f:	90                   	nop
  403610:	90                   	nop
  403611:	90                   	nop
  403612:	90                   	nop
  403613:	90                   	nop
  403614:	90                   	nop
  403615:	90                   	nop
  403616:	90                   	nop
  403617:	90                   	nop
  403618:	90                   	nop
  403619:	90                   	nop
  40361a:	90                   	nop
  40361b:	90                   	nop
  40361c:	90                   	nop
  40361d:	90                   	nop
  40361e:	90                   	nop
  40361f:	90                   	nop
  403620:	90                   	nop
  403621:	90                   	nop
  403622:	90                   	nop
  403623:	90                   	nop
  403624:	90                   	nop
  403625:	90                   	nop
  403626:	90                   	nop
  403627:	90                   	nop
  403628:	90                   	nop
  403629:	90                   	nop
  40362a:	90                   	nop
  40362b:	90                   	nop
  40362c:	90                   	nop
  40362d:	90                   	nop
  40362e:	90                   	nop
  40362f:	90                   	nop
  403630:	90                   	nop
  403631:	90                   	nop
  403632:	90                   	nop
  403633:	90                   	nop
  403634:	90                   	nop
  403635:	90                   	nop
  403636:	90                   	nop
  403637:	90                   	nop
  403638:	90                   	nop
  403639:	90                   	nop
  40363a:	90                   	nop
  40363b:	90                   	nop
  40363c:	90                   	nop
  40363d:	90                   	nop
  40363e:	90                   	nop
  40363f:	90                   	nop

0000000000403640 <L25>:
  403640:	e9 fb 0f 00 00       	jmpq   404640 <L89>
  403645:	90                   	nop
  403646:	90                   	nop
  403647:	90                   	nop
  403648:	90                   	nop
  403649:	90                   	nop
  40364a:	90                   	nop
  40364b:	90                   	nop
  40364c:	90                   	nop
  40364d:	90                   	nop
  40364e:	90                   	nop
  40364f:	90                   	nop
  403650:	90                   	nop
  403651:	90                   	nop
  403652:	90                   	nop
  403653:	90                   	nop
  403654:	90                   	nop
  403655:	90                   	nop
  403656:	90                   	nop
  403657:	90                   	nop
  403658:	90                   	nop
  403659:	90                   	nop
  40365a:	90                   	nop
  40365b:	90                   	nop
  40365c:	90                   	nop
  40365d:	90                   	nop
  40365e:	90                   	nop
  40365f:	90                   	nop
  403660:	90                   	nop
  403661:	90                   	nop
  403662:	90                   	nop
  403663:	90                   	nop
  403664:	90                   	nop
  403665:	90                   	nop
  403666:	90                   	nop
  403667:	90                   	nop
  403668:	90                   	nop
  403669:	90                   	nop
  40366a:	90                   	nop
  40366b:	90                   	nop
  40366c:	90                   	nop
  40366d:	90                   	nop
  40366e:	90                   	nop
  40366f:	90                   	nop
  403670:	90                   	nop
  403671:	90                   	nop
  403672:	90                   	nop
  403673:	90                   	nop
  403674:	90                   	nop
  403675:	90                   	nop
  403676:	90                   	nop
  403677:	90                   	nop
  403678:	90                   	nop
  403679:	90                   	nop
  40367a:	90                   	nop
  40367b:	90                   	nop
  40367c:	90                   	nop
  40367d:	90                   	nop
  40367e:	90                   	nop
  40367f:	90                   	nop

0000000000403680 <L26>:
  403680:	e9 fb 0f 00 00       	jmpq   404680 <L90>
  403685:	90                   	nop
  403686:	90                   	nop
  403687:	90                   	nop
  403688:	90                   	nop
  403689:	90                   	nop
  40368a:	90                   	nop
  40368b:	90                   	nop
  40368c:	90                   	nop
  40368d:	90                   	nop
  40368e:	90                   	nop
  40368f:	90                   	nop
  403690:	90                   	nop
  403691:	90                   	nop
  403692:	90                   	nop
  403693:	90                   	nop
  403694:	90                   	nop
  403695:	90                   	nop
  403696:	90                   	nop
  403697:	90                   	nop
  403698:	90                   	nop
  403699:	90                   	nop
  40369a:	90                   	nop
  40369b:	90                   	nop
  40369c:	90                   	nop
  40369d:	90                   	nop
  40369e:	90                   	nop
  40369f:	90                   	nop
  4036a0:	90                   	nop
  4036a1:	90                   	nop
  4036a2:	90                   	nop
  4036a3:	90                   	nop
  4036a4:	90                   	nop
  4036a5:	90                   	nop
  4036a6:	90                   	nop
  4036a7:	90                   	nop
  4036a8:	90                   	nop
  4036a9:	90                   	nop
  4036aa:	90                   	nop
  4036ab:	90                   	nop
  4036ac:	90                   	nop
  4036ad:	90                   	nop
  4036ae:	90                   	nop
  4036af:	90                   	nop
  4036b0:	90                   	nop
  4036b1:	90                   	nop
  4036b2:	90                   	nop
  4036b3:	90                   	nop
  4036b4:	90                   	nop
  4036b5:	90                   	nop
  4036b6:	90                   	nop
  4036b7:	90                   	nop
  4036b8:	90                   	nop
  4036b9:	90                   	nop
  4036ba:	90                   	nop
  4036bb:	90                   	nop
  4036bc:	90                   	nop
  4036bd:	90                   	nop
  4036be:	90                   	nop
  4036bf:	90                   	nop

00000000004036c0 <L27>:
  4036c0:	e9 fb 0f 00 00       	jmpq   4046c0 <L91>
  4036c5:	90                   	nop
  4036c6:	90                   	nop
  4036c7:	90                   	nop
  4036c8:	90                   	nop
  4036c9:	90                   	nop
  4036ca:	90                   	nop
  4036cb:	90                   	nop
  4036cc:	90                   	nop
  4036cd:	90                   	nop
  4036ce:	90                   	nop
  4036cf:	90                   	nop
  4036d0:	90                   	nop
  4036d1:	90                   	nop
  4036d2:	90                   	nop
  4036d3:	90                   	nop
  4036d4:	90                   	nop
  4036d5:	90                   	nop
  4036d6:	90                   	nop
  4036d7:	90                   	nop
  4036d8:	90                   	nop
